	.file	"main.c"
	.text
.Ltext0:
	.file 0 "/home/jesse/cpp/brainfuck" "main.c"
	.section	.rodata.str1.1,"aMS",@progbits,1
.LC0:
	.string	"could not find end of loop"
.LC1:
	.string	"starting now"
.LC3:
	.string	"div %i\n"
.LC4:
	.string	"\ntime %.3f\n"
	.section	.text.hot,"ax",@progbits
	.p2align 4
	.globl	runJIT
	.type	runJIT, @function
runJIT:
.LFB23:
	.file 1 "main.c"
	.loc 1 60 1 view -0
	.cfi_startproc
	pushq	%rbp
	.cfi_def_cfa_offset 16
	.cfi_offset 6, -16
	movq	%rsp, %rbp
	.cfi_def_cfa_register 6
	pushq	%r15
	pushq	%r14
	pushq	%r13
	pushq	%r12
	pushq	%rbx
	subq	$73592, %rsp
	.cfi_offset 15, -24
	.cfi_offset 14, -32
	.cfi_offset 13, -40
	.cfi_offset 12, -48
	.cfi_offset 3, -56
1:	call	*mcount@GOTPCREL(%rip)
	.loc 1 60 1 is_stmt 0 view .LVU1
	.loc 1 61 19 view .LVU2
	movl	$65535, %edx
	xorl	%esi, %esi
.LBB2:
	.loc 1 71 18 view .LVU3
	movq	$-1, %r14
	leaq	funcs(%rip), %r12
	leaq	.L28(%rip), %rbx
.LBE2:
	.loc 1 60 1 view .LVU4
	movq	%fs:40, %rax
	movq	%rax, -56(%rbp)
	xorl	%eax, %eax
	.loc 1 61 5 is_stmt 1 view .LVU5
	.loc 1 61 19 is_stmt 0 view .LVU6
	leaq	-65600(%rbp), %rax
	movq	%rax, %rdi
	movq	%rax, -73616(%rbp)
	call	memset@PLT
.LVL0:
	.loc 1 62 5 is_stmt 1 view .LVU7
	.loc 1 63 5 view .LVU8
	.loc 1 64 5 view .LVU9
	.loc 1 65 5 view .LVU10
.LBB57:
	.loc 1 68 9 view .LVU11
	.loc 1 69 9 view .LVU12
	.loc 1 70 9 view .LVU13
	.loc 1 71 9 view .LVU14
	.loc 1 72 9 view .LVU15
	.loc 1 72 15 view .LVU16
.LBB3:
	.loc 1 74 33 is_stmt 0 view .LVU17
	movq	funcs(%rip), %rdx
.LBE3:
	.loc 1 69 13 view .LVU18
	xorl	%eax, %eax
.LVL1:
.LBB51:
	.loc 1 74 13 is_stmt 1 view .LVU19
.LBE51:
	.loc 1 68 13 is_stmt 0 view .LVU20
	xorl	%r11d, %r11d
	leaq	.L4(%rip), %rsi
.LBB52:
	.loc 1 74 22 view .LVU21
	movq	%rdx, %rcx
.LVL2:
	.loc 1 75 13 is_stmt 1 view .LVU22
	cmpq	$8, %rdx
	ja	.L2
.LVL3:
	.p2align 4,,10
	.p2align 3
.L130:
	.loc 1 75 13 is_stmt 0 view .LVU23
	movslq	(%rsi,%rdx,4), %rdx
.LVL4:
	.loc 1 75 13 view .LVU24
	addq	%rsi, %rdx
	jmp	*%rdx
	.section	.rodata
	.align 4
	.align 4
.L4:
	.long	.L11-.L4
	.long	.L10-.L4
	.long	.L2-.L4
	.long	.L9-.L4
	.long	.L8-.L4
	.long	.L7-.L4
	.long	.L6-.L4
	.long	.L5-.L4
	.long	.L3-.L4
	.section	.text.hot
	.p2align 4,,10
	.p2align 3
.L3:
.LBB4:
	.loc 1 212 21 is_stmt 1 view .LVU25
	.loc 1 212 30 is_stmt 0 view .LVU26
	cltq
	leaq	.L33(%rip), %r13
.LBE4:
.LBE52:
.LBE57:
	.loc 1 222 5 view .LVU27
	movl	$10, %edi
.LBB58:
.LBB53:
.LBB31:
	.loc 1 212 30 view .LVU28
	movq	%r13, (%r12,%rax,8)
	.loc 1 213 21 is_stmt 1 view .LVU29
.LVL5:
	.loc 1 214 21 view .LVU30
	.loc 1 214 21 is_stmt 0 view .LVU31
.LBE31:
	.loc 1 216 13 is_stmt 1 view .LVU32
	.loc 1 217 13 view .LVU33
	.loc 1 218 13 view .LVU34
	.loc 1 218 13 is_stmt 0 view .LVU35
.LBE53:
	.loc 1 72 15 is_stmt 1 view .LVU36
.LBE58:
	.loc 1 222 5 view .LVU37
	leaq	funcs(%rip), %r12
	call	putchar@PLT
.LVL6:
	.loc 1 224 5 view .LVU38
.LBB59:
	.loc 1 224 9 view .LVU39
	.loc 1 224 22 discriminator 1 view .LVU40
.LBE59:
	.loc 1 222 5 is_stmt 0 view .LVU41
	movl	$1, %esi
	movq	%r12, %r14
	movq	%r12, %rdx
	leaq	80000(%r12), %r9
	leaq	.L29(%rip), %rcx
	movq	%rsi, %r12
	leaq	-80008(%r9), %r8
	jmp	.L34
.LVL7:
	.p2align 4,,10
	.p2align 3
.L36:
.LBB64:
	.loc 1 262 9 is_stmt 1 view .LVU42
	.loc 1 262 11 is_stmt 0 view .LVU43
	cmpq	%r13, %rax
	je	.L50
.L129:
	.loc 1 224 32 is_stmt 1 discriminator 2 view .LVU44
.LVL8:
	.loc 1 224 22 discriminator 1 view .LVU45
	addq	$8, %r14
	addq	$1, %r12
.LVL9:
	.loc 1 224 22 is_stmt 0 discriminator 1 view .LVU46
	cmpq	%r14, %r9
	je	.L50
.LVL10:
.L34:
	.loc 1 226 9 is_stmt 1 view .LVU47
	.loc 1 226 17 is_stmt 0 view .LVU48
	movq	(%r14), %rax
	.loc 1 226 11 view .LVU49
	cmpq	%rbx, %rax
	jne	.L36
.LBB60:
	.loc 1 228 13 is_stmt 1 view .LVU50
.LVL11:
	.loc 1 229 13 view .LVU51
	.loc 1 229 17 is_stmt 0 view .LVU52
	movslq	%r12d, %r15
.LVL12:
	.loc 1 230 13 is_stmt 1 view .LVU53
	.loc 1 230 53 view .LVU54
	.loc 1 229 17 is_stmt 0 view .LVU55
	movq	%r14, %r10
	.loc 1 228 17 view .LVU56
	movl	$1, %edi
	jmp	.L37
.LVL13:
	.p2align 4,,10
	.p2align 3
.L40:
	.loc 1 243 17 is_stmt 1 view .LVU57
	.loc 1 243 18 is_stmt 0 view .LVU58
	leal	1(%r15), %esi
.LVL14:
	.loc 1 230 53 is_stmt 1 view .LVU59
	addq	$8, %r10
.L70:
	.loc 1 230 53 is_stmt 0 view .LVU60
.LBE60:
.LBE64:
	.loc 1 222 5 view .LVU61
	movslq	%esi, %r15
.LVL15:
.L37:
.LBB65:
.LBB61:
	.loc 1 230 38 discriminator 1 view .LVU62
	movq	8(%r10), %rax
	.loc 1 230 30 discriminator 1 view .LVU63
	cmpq	%r13, %rax
	je	.L126
	.loc 1 230 53 discriminator 2 view .LVU64
	cmpl	$10000, %r15d
	je	.L127
	.loc 1 232 17 is_stmt 1 view .LVU65
	.loc 1 232 19 is_stmt 0 view .LVU66
	cmpq	%rbx, %rax
	je	.L128
	.loc 1 237 17 is_stmt 1 view .LVU67
	.loc 1 237 19 is_stmt 0 view .LVU68
	cmpq	%rcx, %rax
	jne	.L40
	.loc 1 240 21 is_stmt 1 view .LVU69
	.loc 1 240 26 is_stmt 0 view .LVU70
	subl	$1, %edi
.LVL16:
.L39:
	.loc 1 243 17 is_stmt 1 view .LVU71
	.loc 1 243 18 is_stmt 0 view .LVU72
	leal	1(%r15), %esi
.LVL17:
	.loc 1 230 53 is_stmt 1 view .LVU73
	addq	$8, %r10
	testl	%edi, %edi
	jne	.L70
.LVL18:
	.loc 1 247 30 view .LVU74
	.loc 1 247 26 is_stmt 0 view .LVU75
	leal	2(%r15), %eax
	.loc 1 246 17 view .LVU76
	movslq	%esi, %r15
	.loc 1 247 24 view .LVU77
	cltq
	.loc 1 247 30 view .LVU78
	cmpq	%rcx, (%rdx,%rax,8)
	jne	.L48
.L47:
	.loc 1 247 30 view .LVU79
	leal	2(%r15), %eax
	cltq
.LVL19:
	.p2align 4,,10
	.p2align 3
.L45:
	.loc 1 250 17 is_stmt 1 view .LVU80
	.loc 1 247 30 view .LVU81
	movq	%rax, %rsi
	addq	$2, %rax
.LVL20:
	.loc 1 247 30 is_stmt 0 view .LVU82
	cmpq	%rcx, (%r8,%rax,8)
	je	.L45
	.loc 1 252 13 is_stmt 1 view .LVU83
	.loc 1 252 15 is_stmt 0 view .LVU84
	testl	%edi, %edi
	jne	.L49
.LVL21:
.L48:
	.loc 1 254 13 is_stmt 1 view .LVU85
	.loc 1 254 26 is_stmt 0 view .LVU86
	movslq	%esi, %rsi
	leaq	(%rdx,%rsi,8), %rax
	movq	%rax, 8(%r14)
	.loc 1 255 13 is_stmt 1 view .LVU87
	.loc 1 255 24 is_stmt 0 view .LVU88
	leaq	8(%r14), %rax
	movq	%rax, (%rdx,%r15,8)
.LBE61:
	.loc 1 262 17 view .LVU89
	movq	(%r14), %rax
	.loc 1 262 9 is_stmt 1 view .LVU90
	.loc 1 262 11 is_stmt 0 view .LVU91
	cmpq	%r13, %rax
	jne	.L129
.LVL22:
	.p2align 4,,10
	.p2align 3
.L50:
	.loc 1 262 11 view .LVU92
.LBE65:
	.loc 1 266 5 is_stmt 1 view .LVU93
	leaq	.LC1(%rip), %rdi
	.loc 1 65 30 is_stmt 0 view .LVU94
	leaq	-73600(%rbp), %r12
.LVL23:
	.loc 1 266 5 view .LVU95
	call	puts@PLT
.LVL24:
	.loc 1 284 5 is_stmt 1 view .LVU96
	.loc 1 65 30 is_stmt 0 view .LVU97
	movq	%r12, %r15
	.loc 1 63 35 view .LVU98
	leaq	funcs(%rip), %rbx
	.loc 1 284 30 view .LVU99
	call	clock@PLT
.LVL25:
	.loc 1 284 23 discriminator 1 view .LVU100
	pxor	%xmm0, %xmm0
	.loc 1 64 30 view .LVU101
	movq	-73616(%rbp), %r14
	.loc 1 284 23 discriminator 1 view .LVU102
	cvtsi2ssq	%rax, %xmm0
	.loc 1 290 11 view .LVU103
	movq	funcs(%rip), %rax
	.loc 1 284 11 discriminator 1 view .LVU104
	divss	.LC2(%rip), %xmm0
	movss	%xmm0, -73608(%rbp)
.LVL26:
	.loc 1 290 5 is_stmt 1 view .LVU105
	.loc 1 290 5 is_stmt 0 view .LVU106
	jmp	*%rax
.LVL27:
	.p2align 4,,10
	.p2align 3
.L5:
.LBB66:
.LBB54:
.LBB32:
	.loc 1 203 21 is_stmt 1 view .LVU107
	.loc 1 203 30 is_stmt 0 view .LVU108
	movslq	%eax, %rdx
	leaq	.L32(%rip), %rdi
.L104:
	.loc 1 203 30 view .LVU109
	movq	%rdi, (%r12,%rdx,8)
	.loc 1 204 21 is_stmt 1 view .LVU110
.LVL28:
	.loc 1 204 41 is_stmt 0 view .LVU111
	leal	1(%r11), %edx
	.loc 1 204 28 view .LVU112
	addl	$1, %eax
.LVL29:
	.loc 1 204 28 view .LVU113
.LBE32:
	.loc 1 216 14 view .LVU114
	addl	$2, %r11d
.LBB33:
	.loc 1 204 39 view .LVU115
	movslq	%edx, %rdx
	movq	(%r12,%rdx,8), %rdi
	.loc 1 204 32 view .LVU116
	movslq	%eax, %rdx
	movq	%rdi, (%r12,%rdx,8)
	.loc 1 205 21 is_stmt 1 view .LVU117
	.loc 1 206 21 view .LVU118
	.loc 1 207 21 view .LVU119
.LBE33:
	.loc 1 74 33 is_stmt 0 view .LVU120
	movslq	%r11d, %rdx
	movq	(%r12,%rdx,8), %rdx
.LVL30:
.L26:
	.loc 1 216 13 is_stmt 1 view .LVU121
	.loc 1 217 13 view .LVU122
	.loc 1 217 14 is_stmt 0 view .LVU123
	movq	%rcx, %r14
	addl	$1, %eax
.LVL31:
	.loc 1 218 13 is_stmt 1 view .LVU124
	.loc 1 218 13 is_stmt 0 view .LVU125
.LBE54:
	.loc 1 72 15 is_stmt 1 view .LVU126
.LBB55:
	.loc 1 74 13 view .LVU127
	.loc 1 74 22 is_stmt 0 view .LVU128
	movq	%rdx, %rcx
.LVL32:
	.loc 1 75 13 is_stmt 1 view .LVU129
	cmpq	$8, %rdx
	jbe	.L130
.LVL33:
.L2:
.LBB34:
	.loc 1 80 41 is_stmt 0 view .LVU130
	addl	$1, %r11d
.LVL34:
	.loc 1 80 41 view .LVU131
.LBE34:
	.loc 1 74 33 view .LVU132
	movslq	%r11d, %rdx
	movq	(%r12,%rdx,8), %rdx
	jmp	.L26
.LVL35:
	.p2align 4,,10
	.p2align 3
.L9:
.LBB35:
	.loc 1 173 21 is_stmt 1 view .LVU133
	.loc 1 173 30 is_stmt 0 view .LVU134
	movslq	%eax, %rdx
	.loc 1 174 100 view .LVU135
	movl	%r11d, %edi
	subl	%eax, %edi
	.loc 1 173 30 view .LVU136
	movq	%rbx, (%r12,%rdx,8)
	.loc 1 174 21 is_stmt 1 view .LVU137
	.loc 1 174 60 is_stmt 0 view .LVU138
	leal	1(%r11), %edx
	.loc 1 174 28 view .LVU139
	addl	$1, %eax
	.loc 1 174 100 view .LVU140
	movslq	%edi, %rdi
	.loc 1 174 80 view .LVU141
	movslq	%edx, %rdx
	.loc 1 174 97 view .LVU142
	subq	%rdi, %rdx
	.loc 1 174 32 view .LVU143
	movslq	%eax, %rdi
.L105:
	.loc 1 183 34 view .LVU144
	leaq	(%r12,%rdx,8), %rdx
.LBE35:
	.loc 1 216 14 view .LVU145
	addl	$2, %r11d
.LBB36:
	.loc 1 183 34 view .LVU146
	movq	%rdx, (%r12,%rdi,8)
	.loc 1 184 21 is_stmt 1 view .LVU147
	.loc 1 185 21 view .LVU148
	.loc 1 186 21 view .LVU149
.LBE36:
	.loc 1 74 33 is_stmt 0 view .LVU150
	movslq	%r11d, %rdx
	movq	(%r12,%rdx,8), %rdx
.LBB37:
	.loc 1 186 21 view .LVU151
	jmp	.L26
	.p2align 4,,10
	.p2align 3
.L10:
	.loc 1 164 21 is_stmt 1 view .LVU152
	.loc 1 164 30 is_stmt 0 view .LVU153
	movslq	%eax, %rdx
	leaq	.L27(%rip), %rdi
	jmp	.L104
	.p2align 4,,10
	.p2align 3
.L11:
	.loc 1 79 21 is_stmt 1 view .LVU154
	.loc 1 80 41 is_stmt 0 view .LVU155
	leal	1(%r11), %edx
	.loc 1 79 30 view .LVU156
	leaq	.L12(%rip), %rdi
	movslq	%eax, %r9
	.loc 1 80 39 view .LVU157
	movslq	%edx, %rdx
	.loc 1 79 30 view .LVU158
	movq	%rdi, (%r12,%r9,8)
	.loc 1 80 21 is_stmt 1 view .LVU159
	.loc 1 80 28 is_stmt 0 view .LVU160
	leal	1(%rax), %edi
	.loc 1 83 35 view .LVU161
	leal	2(%r11), %r10d
	.loc 1 80 39 view .LVU162
	movq	(%r12,%rdx,8), %r8
	.loc 1 80 32 view .LVU163
	movslq	%edi, %rdx
	movq	%r8, (%r12,%rdx,8)
	.loc 1 82 25 is_stmt 1 view .LVU164
.LVL36:
	.loc 1 83 25 view .LVU165
	.loc 1 83 33 is_stmt 0 view .LVU166
	movslq	%r10d, %rdx
	movq	(%r12,%rdx,8), %rdx
	.loc 1 83 56 discriminator 1 view .LVU167
	cmpq	$1, %rdx
	jne	.L13
	cmpq	$3, %r14
	je	.L131
.LVL37:
.L13:
	.loc 1 157 21 is_stmt 1 view .LVU168
	.loc 1 158 21 view .LVU169
	.loc 1 159 21 view .LVU170
	movl	%r10d, %r11d
	.loc 1 157 22 is_stmt 0 view .LVU171
	movl	%edi, %eax
	.loc 1 159 21 view .LVU172
	jmp	.L26
.LVL38:
	.p2align 4,,10
	.p2align 3
.L7:
	.loc 1 191 21 is_stmt 1 view .LVU173
	.loc 1 191 30 is_stmt 0 view .LVU174
	movslq	%eax, %rdx
	leaq	.L30(%rip), %rdi
	.loc 1 80 41 view .LVU175
	addl	$1, %r11d
	.loc 1 191 30 view .LVU176
	movq	%rdi, (%r12,%rdx,8)
	.loc 1 192 21 is_stmt 1 view .LVU177
.LBE37:
	.loc 1 74 33 is_stmt 0 view .LVU178
	movslq	%r11d, %rdx
	movq	(%r12,%rdx,8), %rdx
.LBB38:
	.loc 1 192 21 view .LVU179
	jmp	.L26
	.p2align 4,,10
	.p2align 3
.L6:
	.loc 1 197 21 is_stmt 1 view .LVU180
	.loc 1 197 30 is_stmt 0 view .LVU181
	movslq	%eax, %rdx
	leaq	.L31(%rip), %rdi
	.loc 1 80 41 view .LVU182
	addl	$1, %r11d
	.loc 1 197 30 view .LVU183
	movq	%rdi, (%r12,%rdx,8)
	.loc 1 198 21 is_stmt 1 view .LVU184
.LBE38:
	.loc 1 74 33 is_stmt 0 view .LVU185
	movslq	%r11d, %rdx
	movq	(%r12,%rdx,8), %rdx
.LBB39:
	.loc 1 198 21 view .LVU186
	jmp	.L26
	.p2align 4,,10
	.p2align 3
.L8:
	.loc 1 182 21 is_stmt 1 view .LVU187
	.loc 1 182 30 is_stmt 0 view .LVU188
	movslq	%eax, %rdx
	leaq	.L29(%rip), %rdi
	.loc 1 183 28 view .LVU189
	addl	$1, %eax
	.loc 1 182 30 view .LVU190
	movq	%rdi, (%r12,%rdx,8)
	.loc 1 183 21 is_stmt 1 view .LVU191
	.loc 1 183 42 is_stmt 0 view .LVU192
	leal	1(%r11), %edx
	.loc 1 183 32 view .LVU193
	movslq	%eax, %rdi
	.loc 1 183 34 view .LVU194
	movslq	%edx, %rdx
	jmp	.L105
.LVL39:
	.p2align 4,,10
	.p2align 3
.L128:
	.loc 1 183 34 view .LVU195
.LBE39:
.LBE55:
.LBE66:
.LBB67:
.LBB62:
	.loc 1 234 21 is_stmt 1 view .LVU196
	.loc 1 234 26 is_stmt 0 view .LVU197
	addl	$1, %edi
.LVL40:
	.loc 1 237 17 is_stmt 1 view .LVU198
	jmp	.L39
.LVL41:
	.p2align 4,,10
	.p2align 3
.L33:
	.loc 1 237 17 is_stmt 0 view .LVU199
.LBE62:
.LBE67:
	.loc 1 711 5 is_stmt 1 view .LVU200
	.loc 1 711 28 is_stmt 0 view .LVU201
	call	clock@PLT
.LVL42:
	.loc 1 713 18 view .LVU202
	movb	$0, (%r15)
	.loc 1 714 5 view .LVU203
	movq	%r12, %rdi
	.loc 1 711 28 view .LVU204
	movq	%rax, %rbx
.LVL43:
	.loc 1 713 5 is_stmt 1 view .LVU205
	.loc 1 714 5 view .LVU206
	call	puts@PLT
.LVL44:
	.loc 1 734 5 view .LVU207
	.loc 1 711 21 is_stmt 0 discriminator 1 view .LVU208
	pxor	%xmm0, %xmm0
	.loc 1 734 5 view .LVU209
	movl	$1, %eax
	leaq	.LC4(%rip), %rdi
	.loc 1 711 21 discriminator 1 view .LVU210
	cvtsi2ssq	%rbx, %xmm0
	.loc 1 711 11 discriminator 1 view .LVU211
	divss	.LC2(%rip), %xmm0
	.loc 1 734 36 view .LVU212
	subss	-73608(%rbp), %xmm0
	.loc 1 734 5 view .LVU213
	cvtss2sd	%xmm0, %xmm0
	call	printf@PLT
.LVL45:
	.loc 1 735 1 view .LVU214
	movq	-56(%rbp), %rax
	subq	%fs:40, %rax
	jne	.L132
	.loc 1 735 1 view .LVU215
	addq	$73592, %rsp
	popq	%rbx
.LVL46:
	.loc 1 735 1 view .LVU216
	popq	%r12
	popq	%r13
	popq	%r14
.LVL47:
	.loc 1 735 1 view .LVU217
	popq	%r15
.LVL48:
	.loc 1 735 1 view .LVU218
	popq	%rbp
	.cfi_remember_state
	.cfi_def_cfa 7, 8
	ret
.LVL49:
	.p2align 4,,10
	.p2align 3
.L30:
	.cfi_restore_state
	.loc 1 698 9 is_stmt 1 view .LVU219
	.loc 1 698 22 is_stmt 0 view .LVU220
	movzbl	(%r14), %eax
	.loc 1 699 20 view .LVU221
	addq	$1, %r15
.LVL50:
	.loc 1 701 20 view .LVU222
	addq	$8, %rbx
.LVL51:
	.loc 1 698 22 view .LVU223
	movb	%al, -1(%r15)
	.loc 1 699 9 is_stmt 1 view .LVU224
.LVL52:
	.loc 1 701 9 view .LVU225
	.loc 1 705 13 view .LVU226
	.loc 1 705 19 is_stmt 0 view .LVU227
	movq	(%rbx), %rax
.LVL53:
	.loc 1 705 19 view .LVU228
	jmp	*%rax
	.p2align 4,,10
	.p2align 3
.L32:
.LBB68:
	.loc 1 665 9 is_stmt 1 view .LVU229
.LVL54:
	.loc 1 666 9 view .LVU230
	.loc 1 667 29 is_stmt 0 view .LVU231
	cmpb	$0, (%r14)
	.loc 1 666 23 view .LVU232
	movsbq	8(%rbx), %rax
.LVL55:
	.loc 1 667 9 is_stmt 1 view .LVU233
	.loc 1 667 29 view .LVU234
	je	.L106
	.loc 1 667 29 is_stmt 0 view .LVU235
	cmpb	$1, %al
	jne	.L68
	.p2align 4,,10
	.p2align 3
.L67:
	.loc 1 672 13 is_stmt 1 view .LVU236
	.loc 1 672 25 is_stmt 0 view .LVU237
	addq	$1, %r14
.LVL56:
	.loc 1 667 29 is_stmt 1 view .LVU238
	cmpb	$0, (%r14)
	jne	.L67
	.loc 1 674 9 view .LVU239
.LBE68:
	.loc 1 310 9 view .LVU240
.LVL57:
	.loc 1 314 13 view .LVU241
	.loc 1 314 19 is_stmt 0 view .LVU242
	movq	16(%rbx), %rax
.LVL58:
	.loc 1 310 20 view .LVU243
	addq	$16, %rbx
.LVL59:
	.loc 1 310 20 view .LVU244
	jmp	*%rax
.LVL60:
	.p2align 4,,10
	.p2align 3
.L68:
.LBB69:
	.loc 1 672 13 is_stmt 1 view .LVU245
	.loc 1 672 25 is_stmt 0 view .LVU246
	addq	%rax, %r14
.LVL61:
	.loc 1 667 29 is_stmt 1 view .LVU247
	cmpb	$0, (%r14)
	jne	.L68
.LBE69:
	.loc 1 310 9 view .LVU248
.LVL62:
	.loc 1 314 13 view .LVU249
	.loc 1 314 19 is_stmt 0 view .LVU250
	movq	16(%rbx), %rax
.LVL63:
	.loc 1 310 20 view .LVU251
	addq	$16, %rbx
.LVL64:
	.loc 1 310 20 view .LVU252
	jmp	*%rax
.LVL65:
	.p2align 4,,10
	.p2align 3
.L31:
	.loc 1 644 9 is_stmt 1 view .LVU253
	.loc 1 645 9 view .LVU254
	.loc 1 646 15 is_stmt 0 view .LVU255
	movq	8(%rbx), %rax
	.loc 1 645 22 view .LVU256
	movb	$0, (%r14)
	.loc 1 646 9 is_stmt 1 view .LVU257
	.loc 1 644 20 is_stmt 0 view .LVU258
	addq	$8, %rbx
.LVL66:
	.loc 1 644 20 view .LVU259
	jmp	*%rax
	.p2align 4,,10
	.p2align 3
.L29:
	.loc 1 592 9 is_stmt 1 view .LVU260
.LVL67:
	.loc 1 616 9 view .LVU261
	.loc 1 617 11 is_stmt 0 discriminator 1 view .LVU262
	cmpb	$0, (%r14)
	.loc 1 616 17 view .LVU263
	movq	8(%rbx), %rax
.LVL68:
	.loc 1 617 9 is_stmt 1 view .LVU264
	.loc 1 617 11 is_stmt 0 discriminator 1 view .LVU265
	je	.L133
	.loc 1 627 9 is_stmt 1 view .LVU266
.LVL69:
	.loc 1 628 9 view .LVU267
	.loc 1 628 20 is_stmt 0 view .LVU268
	leaq	8(%rax), %rbx
.LVL70:
	.loc 1 629 9 is_stmt 1 view .LVU269
	jmp	*8(%rax)
.LVL71:
	.p2align 4,,10
	.p2align 3
.L28:
	.loc 1 570 9 view .LVU270
	.loc 1 579 9 view .LVU271
	.loc 1 579 11 is_stmt 0 view .LVU272
	cmpb	$0, (%r14)
	je	.L63
	.loc 1 592 20 view .LVU273
	leaq	8(%rbx), %rax
.LVL72:
	.loc 1 627 9 is_stmt 1 view .LVU274
	.loc 1 628 9 view .LVU275
	.loc 1 628 20 is_stmt 0 view .LVU276
	leaq	8(%rax), %rbx
.LVL73:
	.loc 1 629 9 is_stmt 1 view .LVU277
	jmp	*8(%rax)
.LVL74:
	.p2align 4,,10
	.p2align 3
.L25:
.LBB70:
	.loc 1 504 9 view .LVU278
	.loc 1 519 9 view .LVU279
	.loc 1 527 23 is_stmt 0 view .LVU280
	movzbl	(%r14), %eax
	.loc 1 519 14 view .LVU281
	movq	8(%rbx), %rsi
.LVL75:
	.loc 1 524 9 is_stmt 1 view .LVU282
	.loc 1 525 9 view .LVU283
	.loc 1 526 9 view .LVU284
	.loc 1 525 23 is_stmt 0 view .LVU285
	xorl	%edi, %edi
	.loc 1 526 23 view .LVU286
	movzbl	16(%rbx), %edx
.LVL76:
	.loc 1 527 9 is_stmt 1 view .LVU287
	.loc 1 531 9 view .LVU288
	.loc 1 531 15 view .LVU289
	testb	%al, %al
	je	.L59
.LVL77:
	.p2align 4,,10
	.p2align 3
.L60:
	.loc 1 533 13 view .LVU290
	.loc 1 534 13 view .LVU291
	.loc 1 534 23 is_stmt 0 view .LVU292
	addl	$1, %edi
.LVL78:
	.loc 1 531 15 is_stmt 1 view .LVU293
	addb	%dl, %al
.LVL79:
	.loc 1 531 15 is_stmt 0 view .LVU294
	jne	.L60
.LVL80:
.L59:
	.loc 1 536 9 is_stmt 1 view .LVU295
	.loc 1 538 15 is_stmt 0 view .LVU296
	leal	-1(%rsi), %eax
	.loc 1 537 21 view .LVU297
	leaq	24(%rbx), %rcx
	.loc 1 536 22 view .LVU298
	movb	$0, (%r14)
	.loc 1 537 9 is_stmt 1 view .LVU299
.LVL81:
	.loc 1 538 9 view .LVU300
	.loc 1 540 9 view .LVU301
	.loc 1 541 9 view .LVU302
	.loc 1 542 9 view .LVU303
.LBB71:
	.loc 1 544 18 is_stmt 0 view .LVU304
	xorl	%esi, %esi
.LBE71:
	.loc 1 542 21 view .LVU305
	movsbq	%al, %rdx
.LVL82:
.LBB72:
	.loc 1 544 35 discriminator 1 view .LVU306
	movsbl	%al, %r8d
.LBE72:
	.loc 1 542 21 view .LVU307
	leaq	(%rcx,%rdx,8), %rbx
.LVL83:
	.loc 1 544 9 is_stmt 1 view .LVU308
.LBB73:
	.loc 1 544 13 view .LVU309
	.loc 1 544 27 discriminator 1 view .LVU310
	.loc 1 544 35 is_stmt 0 discriminator 1 view .LVU311
	subl	$1, %r8d
.LBE73:
	.loc 1 540 34 view .LVU312
	movq	%r14, %rdx
.LBB74:
	.loc 1 544 27 discriminator 1 view .LVU313
	cmpb	$1, %al
	jle	.L134
.LVL84:
	.p2align 4,,10
	.p2align 3
.L61:
	.loc 1 546 13 is_stmt 1 view .LVU314
	.loc 1 548 22 is_stmt 0 view .LVU315
	movzbl	8(%rcx), %eax
	.loc 1 546 21 view .LVU316
	addq	(%rcx), %rdx
.LVL85:
	.loc 1 547 13 is_stmt 1 view .LVU317
	.loc 1 548 13 view .LVU318
	.loc 1 544 40 is_stmt 0 discriminator 3 view .LVU319
	addl	$2, %esi
.LVL86:
	.loc 1 549 20 view .LVU320
	addq	$16, %rcx
.LVL87:
	.loc 1 548 22 view .LVU321
	imull	%edi, %eax
	addb	%al, (%rdx)
	.loc 1 549 13 is_stmt 1 view .LVU322
.LVL88:
	.loc 1 544 40 discriminator 3 view .LVU323
	.loc 1 544 27 discriminator 1 view .LVU324
	movzbl	%sil, %eax
	cmpl	%r8d, %eax
	jl	.L61
.LBE74:
	.loc 1 554 13 view .LVU325
	jmp	*(%rbx)
.LVL89:
	.p2align 4,,10
	.p2align 3
.L24:
	.loc 1 554 13 is_stmt 0 view .LVU326
.LBE70:
.LBB75:
	.loc 1 447 9 is_stmt 1 view .LVU327
	.loc 1 465 9 view .LVU328
	.loc 1 466 9 view .LVU329
	.loc 1 467 23 is_stmt 0 view .LVU330
	movzbl	(%r14), %edx
	.loc 1 466 14 view .LVU331
	movq	8(%rbx), %rax
.LVL90:
	.loc 1 467 9 is_stmt 1 view .LVU332
	.loc 1 471 9 view .LVU333
	.loc 1 471 15 view .LVU334
	.loc 1 465 23 is_stmt 0 view .LVU335
	xorl	%ecx, %ecx
	.loc 1 471 15 view .LVU336
	testb	%dl, %dl
	je	.L57
.LVL91:
	.p2align 4,,10
	.p2align 3
.L58:
	.loc 1 473 13 is_stmt 1 view .LVU337
	.loc 1 474 13 view .LVU338
	.loc 1 474 23 is_stmt 0 view .LVU339
	addl	$1, %ecx
.LVL92:
	.loc 1 471 15 is_stmt 1 view .LVU340
	addb	%al, %dl
.LVL93:
	.loc 1 471 15 is_stmt 0 view .LVU341
	jne	.L58
.LVL94:
.L57:
	.loc 1 476 9 is_stmt 1 view .LVU342
	.loc 1 481 17 is_stmt 0 view .LVU343
	movq	16(%rbx), %rdx
	.loc 1 483 18 view .LVU344
	movzbl	24(%rbx), %eax
	.loc 1 476 22 view .LVU345
	movb	$0, (%r14)
	.loc 1 477 9 is_stmt 1 view .LVU346
.LVL95:
	.loc 1 479 9 view .LVU347
	.loc 1 481 9 view .LVU348
	.loc 1 492 20 is_stmt 0 view .LVU349
	addq	$64, %rbx
.LVL96:
	.loc 1 481 17 view .LVU350
	addq	%r14, %rdx
.LVL97:
	.loc 1 482 9 is_stmt 1 view .LVU351
	.loc 1 483 9 view .LVU352
	.loc 1 483 18 is_stmt 0 view .LVU353
	imull	%ecx, %eax
	addb	%al, (%rdx)
	.loc 1 484 9 is_stmt 1 view .LVU354
.LVL98:
	.loc 1 485 9 view .LVU355
	.loc 1 487 18 is_stmt 0 view .LVU356
	movzbl	-24(%rbx), %eax
	.loc 1 485 17 view .LVU357
	addq	-32(%rbx), %rdx
.LVL99:
	.loc 1 486 9 is_stmt 1 view .LVU358
	.loc 1 487 9 view .LVU359
	.loc 1 487 18 is_stmt 0 view .LVU360
	imull	%ecx, %eax
	addb	%al, (%rdx)
	.loc 1 488 9 is_stmt 1 view .LVU361
.LVL100:
	.loc 1 489 9 view .LVU362
	.loc 1 491 18 is_stmt 0 view .LVU363
	movzbl	-8(%rbx), %eax
	.loc 1 489 17 view .LVU364
	addq	-16(%rbx), %rdx
.LVL101:
	.loc 1 490 9 is_stmt 1 view .LVU365
	.loc 1 491 9 view .LVU366
	.loc 1 491 18 is_stmt 0 view .LVU367
	imull	%ecx, %eax
	addb	%al, (%rdx)
	.loc 1 492 9 is_stmt 1 view .LVU368
.LVL102:
	.loc 1 498 13 view .LVU369
	.loc 1 498 19 is_stmt 0 view .LVU370
	movq	(%rbx), %rax
.LVL103:
	.loc 1 498 19 view .LVU371
	jmp	*%rax
.LVL104:
	.p2align 4,,10
	.p2align 3
.L22:
	.loc 1 498 19 view .LVU372
.LBE75:
.LBB76:
	.loc 1 395 9 is_stmt 1 view .LVU373
	.loc 1 413 9 view .LVU374
	.loc 1 414 9 view .LVU375
	.loc 1 415 23 is_stmt 0 view .LVU376
	movzbl	(%r14), %edx
	.loc 1 414 14 view .LVU377
	movq	8(%rbx), %rax
.LVL105:
	.loc 1 415 9 is_stmt 1 view .LVU378
	.loc 1 419 9 view .LVU379
	.loc 1 419 15 view .LVU380
	.loc 1 413 23 is_stmt 0 view .LVU381
	xorl	%ecx, %ecx
	.loc 1 419 15 view .LVU382
	testb	%dl, %dl
	je	.L55
.LVL106:
	.p2align 4,,10
	.p2align 3
.L56:
	.loc 1 421 13 is_stmt 1 view .LVU383
	.loc 1 422 13 view .LVU384
	.loc 1 422 23 is_stmt 0 view .LVU385
	addl	$1, %ecx
.LVL107:
	.loc 1 419 15 is_stmt 1 view .LVU386
	addb	%al, %dl
.LVL108:
	.loc 1 419 15 is_stmt 0 view .LVU387
	jne	.L56
.LVL109:
.L55:
	.loc 1 424 9 is_stmt 1 view .LVU388
	.loc 1 429 17 is_stmt 0 view .LVU389
	movq	16(%rbx), %rdx
	.loc 1 431 18 view .LVU390
	movzbl	24(%rbx), %eax
	.loc 1 424 22 view .LVU391
	movb	$0, (%r14)
	.loc 1 425 9 is_stmt 1 view .LVU392
.LVL110:
	.loc 1 427 9 view .LVU393
	.loc 1 429 9 view .LVU394
	.loc 1 436 20 is_stmt 0 view .LVU395
	addq	$48, %rbx
.LVL111:
	.loc 1 429 17 view .LVU396
	addq	%r14, %rdx
.LVL112:
	.loc 1 430 9 is_stmt 1 view .LVU397
	.loc 1 431 9 view .LVU398
	.loc 1 431 18 is_stmt 0 view .LVU399
	imull	%ecx, %eax
	addb	%al, (%rdx)
	.loc 1 432 9 is_stmt 1 view .LVU400
.LVL113:
	.loc 1 433 9 view .LVU401
	.loc 1 435 18 is_stmt 0 view .LVU402
	movzbl	-8(%rbx), %eax
	.loc 1 433 17 view .LVU403
	addq	-16(%rbx), %rdx
.LVL114:
	.loc 1 434 9 is_stmt 1 view .LVU404
	.loc 1 435 9 view .LVU405
	.loc 1 435 18 is_stmt 0 view .LVU406
	imull	%ecx, %eax
	addb	%al, (%rdx)
	.loc 1 436 9 is_stmt 1 view .LVU407
.LVL115:
	.loc 1 441 13 view .LVU408
	.loc 1 441 19 is_stmt 0 view .LVU409
	movq	(%rbx), %rax
.LVL116:
	.loc 1 441 19 view .LVU410
	jmp	*%rax
.LVL117:
	.p2align 4,,10
	.p2align 3
.L20:
	.loc 1 441 19 view .LVU411
.LBE76:
.LBB77:
	.loc 1 346 9 is_stmt 1 view .LVU412
	.loc 1 364 9 view .LVU413
	.loc 1 365 9 view .LVU414
	.loc 1 365 14 is_stmt 0 view .LVU415
	movq	8(%rbx), %r13
.LVL118:
	.loc 1 366 9 is_stmt 1 view .LVU416
	leaq	.LC3(%rip), %rdi
	xorl	%eax, %eax
	movsbl	%r13b, %esi
	call	printf@PLT
.LVL119:
	.loc 1 367 9 view .LVU417
	.loc 1 367 23 is_stmt 0 view .LVU418
	movzbl	(%r14), %edx
.LVL120:
	.loc 1 371 9 is_stmt 1 view .LVU419
	.loc 1 371 15 view .LVU420
	testb	%dl, %dl
	je	.L73
	.loc 1 373 18 is_stmt 0 view .LVU421
	movl	%r13d, %ecx
	.loc 1 364 23 view .LVU422
	xorl	%eax, %eax
.LVL121:
	.p2align 4,,10
	.p2align 3
.L54:
	.loc 1 373 13 is_stmt 1 view .LVU423
	.loc 1 374 13 view .LVU424
	.loc 1 374 23 is_stmt 0 view .LVU425
	addl	$1, %eax
.LVL122:
	.loc 1 371 15 is_stmt 1 view .LVU426
	addb	%cl, %dl
.LVL123:
	.loc 1 371 15 is_stmt 0 view .LVU427
	jne	.L54
.LVL124:
.L53:
	.loc 1 376 9 is_stmt 1 view .LVU428
	.loc 1 381 20 is_stmt 0 view .LVU429
	movsbq	16(%rbx), %rdx
	.loc 1 383 18 view .LVU430
	mulb	24(%rbx)
	.loc 1 376 22 view .LVU431
	movb	$0, (%r14)
	.loc 1 377 9 is_stmt 1 view .LVU432
.LVL125:
	.loc 1 379 9 view .LVU433
	.loc 1 381 9 view .LVU434
	.loc 1 382 9 view .LVU435
	.loc 1 383 9 view .LVU436
	.loc 1 384 20 is_stmt 0 view .LVU437
	addq	$32, %rbx
.LVL126:
	.loc 1 383 18 view .LVU438
	addb	%al, (%r14,%rdx)
	.loc 1 384 9 is_stmt 1 view .LVU439
.LVL127:
	.loc 1 389 13 view .LVU440
	.loc 1 389 19 is_stmt 0 view .LVU441
	movq	(%rbx), %rax
.LVL128:
	.loc 1 389 19 view .LVU442
	jmp	*%rax
.LVL129:
	.p2align 4,,10
	.p2align 3
.L27:
	.loc 1 389 19 view .LVU443
.LBE77:
	.loc 1 323 9 is_stmt 1 view .LVU444
	.loc 1 335 9 view .LVU445
	.loc 1 340 19 is_stmt 0 view .LVU446
	movq	16(%rbx), %rax
	.loc 1 335 21 view .LVU447
	addq	8(%rbx), %r14
.LVL130:
	.loc 1 336 9 is_stmt 1 view .LVU448
	.loc 1 340 13 view .LVU449
	.loc 1 336 20 is_stmt 0 view .LVU450
	addq	$16, %rbx
.LVL131:
	.loc 1 336 20 view .LVU451
	jmp	*%rax
	.p2align 4,,10
	.p2align 3
.L12:
	.loc 1 297 9 is_stmt 1 view .LVU452
.LVL132:
	.loc 1 309 9 view .LVU453
	.loc 1 309 22 is_stmt 0 view .LVU454
	movzbl	8(%rbx), %eax
	addb	%al, (%r14)
	.loc 1 310 9 is_stmt 1 view .LVU455
.LVL133:
	.loc 1 314 13 view .LVU456
	.loc 1 310 20 is_stmt 0 view .LVU457
	addq	$16, %rbx
.LVL134:
	.loc 1 314 19 view .LVU458
	movq	(%rbx), %rax
	.loc 1 314 19 view .LVU459
	jmp	*%rax
.LVL135:
	.p2align 4,,10
	.p2align 3
.L126:
.LBB78:
.LBB63:
	.loc 1 243 18 view .LVU460
	leal	1(%r15), %eax
.L43:
.LVL136:
	.loc 1 247 30 is_stmt 1 view .LVU461
	.loc 1 247 24 is_stmt 0 view .LVU462
	cltq
	.loc 1 247 30 view .LVU463
	movl	%r15d, %esi
	cmpq	%rcx, (%rdx,%rax,8)
	je	.L47
.LVL137:
.L49:
	.loc 1 253 17 view .LVU464
	leaq	.LC0(%rip), %rdi
.LVL138:
	.loc 1 253 17 view .LVU465
	movq	%rdx, -73624(%rbp)
	movl	%esi, -73608(%rbp)
	.loc 1 253 17 is_stmt 1 view .LVU466
	call	puts@PLT
.LVL139:
	leaq	-8+funcs(%rip), %r8
	movq	-73624(%rbp), %rdx
	movl	-73608(%rbp), %esi
	leaq	.L29(%rip), %rcx
	leaq	80008(%r8), %r9
	jmp	.L48
.LVL140:
	.p2align 4,,10
	.p2align 3
.L127:
	.loc 1 253 17 is_stmt 0 view .LVU467
	movl	$10001, %eax
	jmp	.L43
.LVL141:
	.p2align 4,,10
	.p2align 3
.L63:
	.loc 1 253 17 view .LVU468
.LBE63:
.LBE78:
	.loc 1 581 13 is_stmt 1 view .LVU469
	.loc 1 581 25 is_stmt 0 view .LVU470
	movq	8(%rbx), %rax
.LVL142:
	.loc 1 588 9 is_stmt 1 view .LVU471
	.loc 1 627 9 view .LVU472
	.loc 1 628 9 view .LVU473
	.loc 1 628 20 is_stmt 0 view .LVU474
	leaq	8(%rax), %rbx
.LVL143:
	.loc 1 629 9 is_stmt 1 view .LVU475
	jmp	*8(%rax)
.LVL144:
.L106:
	.loc 1 310 9 view .LVU476
	.loc 1 314 13 view .LVU477
	.loc 1 314 19 is_stmt 0 view .LVU478
	movq	16(%rbx), %rax
.LVL145:
	.loc 1 310 20 view .LVU479
	addq	$16, %rbx
.LVL146:
	.loc 1 310 20 view .LVU480
	jmp	*%rax
.LVL147:
.L134:
.LBB79:
	.loc 1 554 13 is_stmt 1 view .LVU481
	jmp	*(%rbx)
.LVL148:
.L73:
	.loc 1 554 13 is_stmt 0 view .LVU482
.LBE79:
.LBB80:
	.loc 1 364 23 view .LVU483
	xorl	%eax, %eax
	jmp	.L53
.LVL149:
.L133:
	.loc 1 364 23 view .LVU484
.LBE80:
	.loc 1 592 20 view .LVU485
	leaq	8(%rbx), %rax
.LVL150:
	.loc 1 627 9 is_stmt 1 view .LVU486
	.loc 1 628 9 view .LVU487
	.loc 1 628 20 is_stmt 0 view .LVU488
	leaq	8(%rax), %rbx
.LVL151:
	.loc 1 629 9 is_stmt 1 view .LVU489
	jmp	*8(%rax)
.LVL152:
.L131:
	.loc 1 629 9 is_stmt 0 view .LVU490
	leal	4(%r11), %edx
.LBB81:
.LBB56:
.LBB40:
.LBB5:
	.loc 1 85 33 view .LVU491
	xorl	%r15d, %r15d
.LBE5:
	.loc 1 82 29 view .LVU492
	movl	$1, %r14d
.LVL153:
.LBB18:
	.loc 1 87 40 view .LVU493
	movl	$1, %r11d
	movslq	%edx, %rdx
.LBE18:
	.loc 1 83 56 discriminator 1 view .LVU494
	movq	%rdx, %r13
	jmp	.L17
.LVL154:
	.p2align 4,,10
	.p2align 3
.L14:
.LBB19:
	.loc 1 91 33 is_stmt 1 view .LVU495
	.loc 1 92 59 is_stmt 0 discriminator 1 view .LVU496
	movq	(%r12,%r13,8), %r11
	.loc 1 91 40 view .LVU497
	addl	$1, %r14d
.LVL155:
	.loc 1 92 33 is_stmt 1 view .LVU498
	.loc 1 92 35 is_stmt 0 view .LVU499
	testl	%r15d, %r15d
	jne	.L15
	.loc 1 92 51 discriminator 1 view .LVU500
	cmpq	$4, %r11
	je	.L16
.L15:
	.loc 1 87 62 is_stmt 1 view .LVU501
	addq	$2, %r13
	cmpq	$1, %r11
	ja	.L135
.LVL156:
.L17:
	.loc 1 89 33 view .LVU502
	.loc 1 89 35 is_stmt 0 view .LVU503
	cmpq	$1, %r11
	jne	.L14
	.loc 1 90 37 is_stmt 1 view .LVU504
	.loc 1 90 77 is_stmt 0 view .LVU505
	leal	-1(%r13), %r11d
	.loc 1 90 65 view .LVU506
	movslq	%r11d, %r11
	.loc 1 90 47 view .LVU507
	addl	(%r12,%r11,8), %r15d
.LVL157:
	.loc 1 90 47 view .LVU508
	jmp	.L14
.L16:
.LVL158:
	.loc 1 96 29 is_stmt 1 view .LVU509
.LBB6:
	.loc 1 98 33 view .LVU510
	.loc 1 99 33 view .LVU511
	.loc 1 103 33 view .LVU512
	.loc 1 105 33 view .LVU513
	.loc 1 98 53 is_stmt 0 view .LVU514
	xorl	%r13d, %r13d
	cmpl	$8, %r14d
	movl	%edi, %r10d
	setle	%r13b
	.loc 1 105 35 view .LVU515
	leal	-2(%rax), %r11d
.LVL159:
	.loc 1 107 33 is_stmt 1 view .LVU516
	.loc 1 107 66 view .LVU517
	leaq	-8+funcs(%rip), %r15
	subl	%r13d, %r10d
	movslq	%r10d, %r10
	leaq	(%r12,%r10,8), %r10
	movq	%r10, -73608(%rbp)
	.loc 1 112 54 is_stmt 0 view .LVU518
	movl	$1, %r10d
.LVL160:
.L18:
	.loc 1 112 37 is_stmt 1 view .LVU519
	.loc 1 112 73 is_stmt 0 view .LVU520
	movq	(%r15,%rdx,8), %r13
	.loc 1 112 66 view .LVU521
	movq	-73608(%rbp), %r14
	movq	%rdx, -73624(%rbp)
	movq	%r13, -8(%r14,%r10,8)
	.loc 1 113 37 is_stmt 1 view .LVU522
.LVL161:
	.loc 1 107 66 view .LVU523
	.loc 1 107 44 is_stmt 0 view .LVU524
	movq	(%r12,%rdx,8), %r14
	movq	%r10, %r13
	.loc 1 107 66 view .LVU525
	addq	$2, %rdx
	addq	$1, %r10
.LVL162:
	.loc 1 107 66 view .LVU526
	cmpq	$1, %r14
	jbe	.L18
	.loc 1 115 33 is_stmt 1 view .LVU527
.LVL163:
	.loc 1 117 33 view .LVU528
.LBE6:
.LBE19:
.LBE40:
	.loc 1 216 14 is_stmt 0 view .LVU529
	movl	-73624(%rbp), %r10d
.LBB41:
.LBB20:
.LBB7:
	.loc 1 120 44 view .LVU530
	leal	-1(%rax), %edx
	.loc 1 120 50 view .LVU531
	movslq	%r8d, %r8
	.loc 1 120 50 view .LVU532
.LBE7:
.LBE20:
.LBE41:
	.loc 1 216 14 view .LVU533
	addl	$2, %r10d
.LBB42:
.LBB21:
.LBB8:
	.loc 1 117 35 view .LVU534
	cmpl	$3, %r13d
	je	.L136
	.loc 1 123 39 is_stmt 1 view .LVU535
	.loc 1 123 41 is_stmt 0 view .LVU536
	cmpl	$5, %r13d
	je	.L137
	.loc 1 129 39 is_stmt 1 view .LVU537
	.loc 1 129 41 is_stmt 0 view .LVU538
	cmpl	$7, %r13d
	je	.L138
	.loc 1 137 37 is_stmt 1 view .LVU539
	.loc 1 137 46 is_stmt 0 view .LVU540
	movslq	%r11d, %rax
	leaq	.L25(%rip), %rdi
	.loc 1 138 48 view .LVU541
	movslq	%edx, %rdx
	.loc 1 137 46 view .LVU542
	movq	%rdi, (%r12,%rax,8)
	.loc 1 138 37 is_stmt 1 view .LVU543
	.loc 1 138 50 is_stmt 0 view .LVU544
	movslq	%r13d, %rax
.LBE8:
.LBE21:
	.loc 1 157 22 view .LVU545
	leal	1(%r11,%r13), %edi
.LBB22:
.LBB9:
	.loc 1 138 50 view .LVU546
	movq	%rax, (%r12,%rdx,8)
	.loc 1 139 37 is_stmt 1 view .LVU547
.LBE9:
.LBE22:
.LBE42:
	.loc 1 74 33 is_stmt 0 view .LVU548
	movslq	%r10d, %rax
.LBB43:
.LBB23:
.LBB10:
	.loc 1 139 48 view .LVU549
	movq	%r8, (%r12,%r9,8)
	.loc 1 140 37 is_stmt 1 view .LVU550
.LVL164:
	.loc 1 141 37 view .LVU551
	.loc 1 141 37 is_stmt 0 view .LVU552
.LBE10:
.LBE23:
.LBE43:
	.loc 1 74 33 view .LVU553
	movq	(%r12,%rax,8), %rdx
	jmp	.L13
.LVL165:
.L136:
.LBB44:
.LBB24:
.LBB11:
	.loc 1 119 37 is_stmt 1 view .LVU554
	.loc 1 119 46 is_stmt 0 view .LVU555
	leaq	.L20(%rip), %rax
	movslq	%r11d, %r11
	.loc 1 120 48 view .LVU556
	movslq	%edx, %rdx
	.loc 1 119 46 view .LVU557
	movq	%rax, (%r12,%r11,8)
	.loc 1 120 37 is_stmt 1 view .LVU558
.LBE11:
.LBE24:
.LBE44:
	.loc 1 74 33 is_stmt 0 view .LVU559
	movslq	%r10d, %rax
.LBB45:
.LBB25:
.LBB12:
	.loc 1 120 48 view .LVU560
	movq	%r8, (%r12,%rdx,8)
	.loc 1 121 37 is_stmt 1 view .LVU561
.LVL166:
	.loc 1 122 37 view .LVU562
	.loc 1 122 37 is_stmt 0 view .LVU563
.LBE12:
.LBE25:
.LBE45:
	.loc 1 74 33 view .LVU564
	movq	(%r12,%rax,8), %rdx
.LBB46:
.LBB26:
.LBB13:
	jmp	.L13
.LVL167:
.L138:
	.loc 1 131 37 is_stmt 1 view .LVU565
	.loc 1 131 46 is_stmt 0 view .LVU566
	leaq	.L24(%rip), %rdi
	movslq	%r11d, %r11
	.loc 1 132 48 view .LVU567
	movslq	%edx, %rdx
	.loc 1 131 46 view .LVU568
	movq	%rdi, (%r12,%r11,8)
	.loc 1 132 37 is_stmt 1 view .LVU569
.LBE13:
.LBE26:
	.loc 1 157 22 is_stmt 0 view .LVU570
	leal	5(%rax), %edi
.LBE46:
	.loc 1 74 33 view .LVU571
	movslq	%r10d, %rax
.LBB47:
.LBB27:
.LBB14:
	.loc 1 132 48 view .LVU572
	movq	%r8, (%r12,%rdx,8)
	.loc 1 133 37 is_stmt 1 view .LVU573
.LVL168:
	.loc 1 134 37 view .LVU574
	.loc 1 134 37 is_stmt 0 view .LVU575
.LBE14:
.LBE27:
.LBE47:
	.loc 1 74 33 view .LVU576
	movq	(%r12,%rax,8), %rdx
.LBB48:
.LBB28:
.LBB15:
	jmp	.L13
.LVL169:
.L137:
	.loc 1 125 37 is_stmt 1 view .LVU577
	.loc 1 125 46 is_stmt 0 view .LVU578
	leaq	.L22(%rip), %rdi
	movslq	%r11d, %r11
	.loc 1 126 48 view .LVU579
	movslq	%edx, %rdx
	.loc 1 125 46 view .LVU580
	movq	%rdi, (%r12,%r11,8)
	.loc 1 126 37 is_stmt 1 view .LVU581
.LBE15:
.LBE28:
	.loc 1 157 22 is_stmt 0 view .LVU582
	leal	3(%rax), %edi
.LBE48:
	.loc 1 74 33 view .LVU583
	movslq	%r10d, %rax
.LBB49:
.LBB29:
.LBB16:
	.loc 1 126 48 view .LVU584
	movq	%r8, (%r12,%rdx,8)
	.loc 1 127 37 is_stmt 1 view .LVU585
.LVL170:
	.loc 1 128 37 view .LVU586
	.loc 1 128 37 is_stmt 0 view .LVU587
.LBE16:
.LBE29:
.LBE49:
	.loc 1 74 33 view .LVU588
	movq	(%r12,%rax,8), %rdx
.LBB50:
.LBB30:
.LBB17:
	jmp	.L13
.LVL171:
.L135:
	.loc 1 74 33 view .LVU589
.LBE17:
	movl	$1, %edx
	jmp	.L13
.LVL172:
	.p2align 4,,10
	.p2align 3
.L132:
	.loc 1 74 33 view .LVU590
.LBE30:
.LBE50:
.LBE56:
.LBE81:
	.loc 1 735 1 view .LVU591
	call	__stack_chk_fail@PLT
.LVL173:
	.cfi_endproc
.LFE23:
	.size	runJIT, .-runJIT
	.text
	.p2align 4
	.globl	compile
	.type	compile, @function
compile:
.LVL174:
.LFB24:
	.loc 1 744 1 is_stmt 1 view -0
	.cfi_startproc
	.loc 1 744 1 is_stmt 0 view .LVU593
	pushq	%rbp
	.cfi_def_cfa_offset 16
	.cfi_offset 6, -16
	movq	%rsp, %rbp
	.cfi_def_cfa_register 6
1:	call	*mcount@GOTPCREL(%rip)
	.loc 1 744 1 view .LVU594
	.loc 1 745 5 is_stmt 1 view .LVU595
	.loc 1 745 7 is_stmt 0 view .LVU596
	cmpl	$1, intstate(%rip)
	.loc 1 744 1 view .LVU597
	movl	%edi, %eax
	.loc 1 745 7 view .LVU598
	je	.L173
	.loc 1 776 12 is_stmt 1 view .LVU599
	.loc 1 776 21 is_stmt 0 view .LVU600
	movl	$0, intcount(%rip)
.L141:
	.loc 1 778 5 is_stmt 1 view .LVU601
	.loc 1 778 7 is_stmt 0 view .LVU602
	cmpl	$1, movestate(%rip)
	je	.L174
.LVL175:
.L145:
	.loc 1 812 11 is_stmt 1 view .LVU603
	.loc 1 812 20 is_stmt 0 view .LVU604
	movl	$0, movecount(%rip)
.L146:
	.loc 1 816 5 is_stmt 1 view .LVU605
	subl	$43, %eax
.LVL176:
	.loc 1 816 5 is_stmt 0 view .LVU606
	cmpb	$50, %al
	ja	.L139
	leaq	.L152(%rip), %rdx
	movzbl	%al, %eax
.LVL177:
	.loc 1 816 5 view .LVU607
	movslq	(%rdx,%rax,4), %rax
	addq	%rdx, %rax
	jmp	*%rax
	.section	.rodata
	.align 4
	.align 4
.L152:
	.long	.L158-.L152
	.long	.L139-.L152
	.long	.L157-.L152
	.long	.L156-.L152
	.long	.L139-.L152
	.long	.L139-.L152
	.long	.L139-.L152
	.long	.L139-.L152
	.long	.L139-.L152
	.long	.L139-.L152
	.long	.L139-.L152
	.long	.L139-.L152
	.long	.L139-.L152
	.long	.L139-.L152
	.long	.L139-.L152
	.long	.L139-.L152
	.long	.L139-.L152
	.long	.L155-.L152
	.long	.L139-.L152
	.long	.L154-.L152
	.long	.L139-.L152
	.long	.L139-.L152
	.long	.L139-.L152
	.long	.L139-.L152
	.long	.L139-.L152
	.long	.L139-.L152
	.long	.L139-.L152
	.long	.L139-.L152
	.long	.L139-.L152
	.long	.L139-.L152
	.long	.L139-.L152
	.long	.L139-.L152
	.long	.L139-.L152
	.long	.L139-.L152
	.long	.L139-.L152
	.long	.L139-.L152
	.long	.L139-.L152
	.long	.L139-.L152
	.long	.L139-.L152
	.long	.L139-.L152
	.long	.L139-.L152
	.long	.L139-.L152
	.long	.L139-.L152
	.long	.L139-.L152
	.long	.L139-.L152
	.long	.L139-.L152
	.long	.L139-.L152
	.long	.L139-.L152
	.long	.L153-.L152
	.long	.L139-.L152
	.long	.L166-.L152
	.text
.L166:
	movl	pos(%rip), %ecx
	leaq	funcs(%rip), %rdx
	.p2align 4,,10
	.p2align 3
.L151:
	.loc 1 861 10 is_stmt 1 view .LVU608
	.loc 1 864 31 is_stmt 0 view .LVU609
	movslq	colonCount(%rip), %r8
	.loc 1 861 21 view .LVU610
	movslq	%ecx, %rax
	.loc 1 862 13 view .LVU611
	leal	1(%rcx), %edi
	.loc 1 868 13 view .LVU612
	addl	$2, %ecx
	.loc 1 861 21 view .LVU613
	movq	$4, (%rdx,%rax,8)
	.loc 1 862 10 is_stmt 1 view .LVU614
	.loc 1 864 13 view .LVU615
	.loc 1 864 31 is_stmt 0 view .LVU616
	leaq	colon(%rip), %rax
	.loc 1 864 24 view .LVU617
	movslq	%edi, %rdi
	.loc 1 864 31 view .LVU618
	movq	%r8, %rsi
	movslq	(%rax,%r8,4), %r8
	.loc 1 868 13 view .LVU619
	movl	%ecx, pos(%rip)
	.loc 1 867 20 view .LVU620
	subl	$1, %esi
	.loc 1 864 31 view .LVU621
	movq	%r8, %rax
	.loc 1 864 48 view .LVU622
	leaq	8(%rdx,%r8,8), %r8
	.loc 1 867 20 view .LVU623
	movl	%esi, colonCount(%rip)
	.loc 1 865 33 view .LVU624
	addl	$1, %eax
	.loc 1 864 48 view .LVU625
	movq	%r8, (%rdx,%rdi,8)
	.loc 1 865 10 is_stmt 1 view .LVU626
	.loc 1 865 43 is_stmt 0 view .LVU627
	leaq	(%rdx,%rdi,8), %rdi
	.loc 1 865 37 view .LVU628
	cltq
	.loc 1 865 43 view .LVU629
	movq	%rdi, (%rdx,%rax,8)
	.loc 1 867 10 is_stmt 1 view .LVU630
	.loc 1 868 10 view .LVU631
	.loc 1 869 10 view .LVU632
.L139:
	.loc 1 877 1 is_stmt 0 view .LVU633
	popq	%rbp
	.cfi_remember_state
	.cfi_def_cfa 7, 8
	ret
.LVL178:
	.p2align 4,,10
	.p2align 3
.L174:
	.cfi_restore_state
	.loc 1 780 9 is_stmt 1 view .LVU634
	leal	-43(%rax), %edx
	cmpb	$50, %dl
	ja	.L139
.LVL179:
.L159:
	.loc 1 780 9 is_stmt 0 view .LVU635
	movabsq	$1407374883553293, %rcx
	btq	%rdx, %rcx
	jnc	.L146
	.loc 1 782 13 is_stmt 1 view .LVU636
	.loc 1 782 26 is_stmt 0 view .LVU637
	movslq	movecount(%rip), %rcx
	.loc 1 782 15 view .LVU638
	testl	%ecx, %ecx
	jne	.L147
	.loc 1 784 17 is_stmt 1 view .LVU639
	.loc 1 784 27 is_stmt 0 view .LVU640
	movl	$0, movestate(%rip)
	jmp	.L146
.LVL180:
	.p2align 4,,10
	.p2align 3
.L173:
	.loc 1 747 9 is_stmt 1 view .LVU641
	leal	-46(%rdi), %edx
	cmpb	$47, %dl
	ja	.L141
	movabsq	$175921860526081, %rcx
	btq	%rdx, %rcx
	jnc	.L142
	.loc 1 749 13 view .LVU642
	.loc 1 749 25 is_stmt 0 view .LVU643
	movslq	intcount(%rip), %rcx
	.loc 1 749 15 view .LVU644
	testl	%ecx, %ecx
	je	.L142
	.loc 1 754 21 is_stmt 1 view .LVU645
	.loc 1 754 40 is_stmt 0 discriminator 1 view .LVU646
	movl	pos(%rip), %esi
	leaq	funcs(%rip), %rdx
	.loc 1 754 23 view .LVU647
	cmpb	$93, %dil
	je	.L175
.LVL181:
.L143:
	.loc 1 767 17 is_stmt 1 view .LVU648
	.loc 1 771 26 is_stmt 0 view .LVU649
	movl	$0, intcount(%rip)
	.loc 1 767 28 view .LVU650
	movslq	%esi, %rdi
	movq	$0, (%rdx,%rdi,8)
	.loc 1 768 17 is_stmt 1 view .LVU651
	.loc 1 769 17 view .LVU652
	.loc 1 768 20 is_stmt 0 view .LVU653
	leal	1(%rsi), %edi
	.loc 1 773 20 view .LVU654
	addl	$2, %esi
	.loc 1 769 28 view .LVU655
	movslq	%edi, %rdi
	.loc 1 773 20 view .LVU656
	movl	%esi, pos(%rip)
	.loc 1 769 37 view .LVU657
	movq	%rcx, (%rdx,%rdi,8)
	.loc 1 771 17 is_stmt 1 view .LVU658
	.loc 1 772 17 view .LVU659
	.loc 1 772 26 is_stmt 0 view .LVU660
	movl	$0, intstate(%rip)
	.loc 1 773 17 is_stmt 1 view .LVU661
.L142:
	.loc 1 778 5 view .LVU662
	.loc 1 778 7 is_stmt 0 view .LVU663
	cmpl	$1, movestate(%rip)
	jne	.L145
	.loc 1 780 9 is_stmt 1 view .LVU664
	leal	-43(%rax), %edx
	jmp	.L159
.LVL182:
	.p2align 4,,10
	.p2align 3
.L158:
	.loc 1 820 10 view .LVU665
	.loc 1 821 15 is_stmt 0 view .LVU666
	addl	$1, intcount(%rip)
	.loc 1 877 1 view .LVU667
	popq	%rbp
	.cfi_remember_state
	.cfi_def_cfa 7, 8
	.loc 1 820 19 view .LVU668
	movl	$1, intstate(%rip)
	.loc 1 821 7 is_stmt 1 view .LVU669
	.loc 1 822 7 view .LVU670
	.loc 1 877 1 is_stmt 0 view .LVU671
	ret
	.p2align 4,,10
	.p2align 3
.L157:
	.cfi_restore_state
	.loc 1 824 10 is_stmt 1 view .LVU672
	.loc 1 825 15 is_stmt 0 view .LVU673
	subl	$1, intcount(%rip)
	.loc 1 877 1 view .LVU674
	popq	%rbp
	.cfi_remember_state
	.cfi_def_cfa 7, 8
	.loc 1 824 19 view .LVU675
	movl	$1, intstate(%rip)
	.loc 1 825 7 is_stmt 1 view .LVU676
	.loc 1 826 7 view .LVU677
	.loc 1 877 1 is_stmt 0 view .LVU678
	ret
	.p2align 4,,10
	.p2align 3
.L156:
	.cfi_restore_state
	.loc 1 872 10 is_stmt 1 view .LVU679
	.loc 1 872 15 is_stmt 0 view .LVU680
	movslq	pos(%rip), %rcx
	.loc 1 872 21 view .LVU681
	leaq	funcs(%rip), %rdx
	.loc 1 872 15 view .LVU682
	movq	%rcx, %rax
	.loc 1 872 21 view .LVU683
	movq	$5, (%rdx,%rcx,8)
	.loc 1 873 10 is_stmt 1 view .LVU684
	.loc 1 877 1 is_stmt 0 view .LVU685
	popq	%rbp
	.cfi_remember_state
	.cfi_def_cfa 7, 8
	.loc 1 873 13 view .LVU686
	addl	$1, %eax
	movl	%eax, pos(%rip)
	.loc 1 874 10 is_stmt 1 view .LVU687
	.loc 1 877 1 is_stmt 0 view .LVU688
	ret
	.p2align 4,,10
	.p2align 3
.L155:
	.cfi_restore_state
	.loc 1 833 10 is_stmt 1 view .LVU689
	.loc 1 834 16 is_stmt 0 view .LVU690
	subl	$1, movecount(%rip)
	.loc 1 877 1 view .LVU691
	popq	%rbp
	.cfi_remember_state
	.cfi_def_cfa 7, 8
	.loc 1 833 20 view .LVU692
	movl	$1, movestate(%rip)
	.loc 1 834 7 is_stmt 1 view .LVU693
	.loc 1 835 7 view .LVU694
	.loc 1 877 1 is_stmt 0 view .LVU695
	ret
	.p2align 4,,10
	.p2align 3
.L154:
	.cfi_restore_state
	.loc 1 829 10 is_stmt 1 view .LVU696
	.loc 1 830 16 is_stmt 0 view .LVU697
	addl	$1, movecount(%rip)
	.loc 1 877 1 view .LVU698
	popq	%rbp
	.cfi_remember_state
	.cfi_def_cfa 7, 8
	.loc 1 829 20 view .LVU699
	movl	$1, movestate(%rip)
	.loc 1 830 7 is_stmt 1 view .LVU700
	.loc 1 831 7 view .LVU701
	.loc 1 877 1 is_stmt 0 view .LVU702
	ret
	.p2align 4,,10
	.p2align 3
.L153:
	.cfi_restore_state
	.loc 1 845 10 is_stmt 1 view .LVU703
	.loc 1 845 15 is_stmt 0 view .LVU704
	movslq	pos(%rip), %rcx
	.loc 1 845 21 view .LVU705
	leaq	funcs(%rip), %rax
	movq	$3, (%rax,%rcx,8)
	.loc 1 847 10 is_stmt 1 view .LVU706
	.loc 1 847 20 is_stmt 0 view .LVU707
	movl	colonCount(%rip), %eax
	.loc 1 845 15 view .LVU708
	movq	%rcx, %rdx
	.loc 1 848 28 view .LVU709
	leaq	colon(%rip), %rcx
	.loc 1 847 20 view .LVU710
	addl	$1, %eax
	movl	%eax, colonCount(%rip)
	.loc 1 848 10 is_stmt 1 view .LVU711
	.loc 1 848 28 is_stmt 0 view .LVU712
	cltq
	movl	%edx, (%rcx,%rax,4)
	.loc 1 849 10 is_stmt 1 view .LVU713
	.loc 1 849 13 is_stmt 0 view .LVU714
	addl	$2, %edx
	.loc 1 877 1 view .LVU715
	popq	%rbp
	.cfi_remember_state
	.cfi_def_cfa 7, 8
	.loc 1 849 13 view .LVU716
	movl	%edx, pos(%rip)
	.loc 1 850 4 is_stmt 1 view .LVU717
	.loc 1 877 1 is_stmt 0 view .LVU718
	ret
	.p2align 4,,10
	.p2align 3
.L147:
	.cfi_restore_state
	.loc 1 788 21 is_stmt 1 view .LVU719
	.loc 1 788 40 is_stmt 0 discriminator 1 view .LVU720
	movl	pos(%rip), %esi
	.loc 1 788 23 view .LVU721
	cmpb	$93, %al
	je	.L176
	.loc 1 804 17 is_stmt 1 view .LVU722
	.loc 1 804 28 is_stmt 0 view .LVU723
	leaq	funcs(%rip), %rdx
	movslq	%esi, %rdi
	.loc 1 807 27 view .LVU724
	movl	$0, movecount(%rip)
	.loc 1 804 28 view .LVU725
	movq	$1, (%rdx,%rdi,8)
	.loc 1 805 17 is_stmt 1 view .LVU726
	.loc 1 806 17 view .LVU727
	.loc 1 805 20 is_stmt 0 view .LVU728
	leal	1(%rsi), %edi
	.loc 1 808 27 view .LVU729
	movl	$0, movestate(%rip)
	.loc 1 806 28 view .LVU730
	movslq	%edi, %rdi
	movq	%rcx, (%rdx,%rdi,8)
	.loc 1 807 17 is_stmt 1 view .LVU731
	.loc 1 808 17 view .LVU732
	.loc 1 809 17 view .LVU733
	.loc 1 809 20 is_stmt 0 view .LVU734
	leal	2(%rsi), %edx
	movl	%edx, pos(%rip)
	jmp	.L146
.LVL183:
	.p2align 4,,10
	.p2align 3
.L175:
	.loc 1 754 33 discriminator 1 view .LVU735
	cmpl	$1, %esi
	jle	.L143
	.loc 1 755 25 is_stmt 1 view .LVU736
	.loc 1 755 38 is_stmt 0 view .LVU737
	leal	-2(%rsi), %edi
.LVL184:
	.loc 1 755 33 view .LVU738
	movslq	%edi, %rdi
	.loc 1 755 27 view .LVU739
	cmpq	$3, (%rdx,%rdi,8)
	jne	.L143
	.loc 1 757 29 is_stmt 1 view .LVU740
	.loc 1 758 29 view .LVU741
	.loc 1 759 32 is_stmt 0 view .LVU742
	subl	$1, %esi
	.loc 1 758 40 view .LVU743
	movq	$6, (%rdx,%rdi,8)
	.loc 1 759 29 is_stmt 1 view .LVU744
	.loc 1 877 1 is_stmt 0 view .LVU745
	popq	%rbp
	.cfi_remember_state
	.cfi_def_cfa 7, 8
	.loc 1 762 39 view .LVU746
	subl	$1, colonCount(%rip)
	.loc 1 759 32 view .LVU747
	movl	%esi, pos(%rip)
	.loc 1 760 29 is_stmt 1 view .LVU748
	.loc 1 760 38 is_stmt 0 view .LVU749
	movl	$0, intcount(%rip)
	.loc 1 761 29 is_stmt 1 view .LVU750
	.loc 1 761 38 is_stmt 0 view .LVU751
	movl	$0, intstate(%rip)
	.loc 1 762 29 is_stmt 1 view .LVU752
	.loc 1 763 29 view .LVU753
	.loc 1 877 1 is_stmt 0 view .LVU754
	ret
	.p2align 4,,10
	.p2align 3
.L176:
	.cfi_restore_state
	.loc 1 788 33 discriminator 1 view .LVU755
	cmpl	$1, %esi
	jle	.L149
	.loc 1 789 25 is_stmt 1 view .LVU756
	.loc 1 789 38 is_stmt 0 view .LVU757
	leal	-2(%rsi), %eax
.LVL185:
	.loc 1 789 33 view .LVU758
	leaq	funcs(%rip), %rdx
	cltq
	.loc 1 789 27 view .LVU759
	cmpq	$3, (%rdx,%rax,8)
	je	.L177
.L150:
	.loc 1 804 17 is_stmt 1 view .LVU760
	.loc 1 804 28 is_stmt 0 view .LVU761
	movslq	%esi, %rax
	movq	$1, (%rdx,%rax,8)
	.loc 1 805 17 is_stmt 1 view .LVU762
	.loc 1 806 17 view .LVU763
	.loc 1 805 20 is_stmt 0 view .LVU764
	leal	1(%rsi), %eax
	.loc 1 809 20 view .LVU765
	addl	$2, %esi
	.loc 1 806 28 view .LVU766
	cltq
	movq	%rcx, (%rdx,%rax,8)
	.loc 1 807 17 is_stmt 1 view .LVU767
	movl	%esi, %ecx
	.loc 1 807 27 is_stmt 0 view .LVU768
	movl	$0, movecount(%rip)
	.loc 1 808 17 is_stmt 1 view .LVU769
	.loc 1 808 27 is_stmt 0 view .LVU770
	movl	$0, movestate(%rip)
	.loc 1 809 17 is_stmt 1 view .LVU771
	.loc 1 809 20 is_stmt 0 view .LVU772
	movl	%esi, pos(%rip)
	.loc 1 816 5 is_stmt 1 view .LVU773
	jmp	.L151
	.p2align 4,,10
	.p2align 3
.L149:
	.loc 1 804 17 view .LVU774
	.loc 1 804 28 is_stmt 0 view .LVU775
	leaq	funcs(%rip), %rdx
	jmp	.L150
.L177:
	.loc 1 792 29 is_stmt 1 view .LVU776
	.loc 1 793 29 view .LVU777
	.loc 1 793 40 is_stmt 0 view .LVU778
	movq	$7, (%rdx,%rax,8)
	.loc 1 794 29 is_stmt 1 view .LVU779
	.loc 1 794 38 is_stmt 0 view .LVU780
	leal	-1(%rsi), %eax
	.loc 1 794 42 view .LVU781
	cltq
	.loc 1 799 39 view .LVU782
	subl	$1, colonCount(%rip)
	.loc 1 794 42 view .LVU783
	movq	%rcx, (%rdx,%rax,8)
	.loc 1 795 29 is_stmt 1 view .LVU784
	.loc 1 797 29 view .LVU785
	.loc 1 877 1 is_stmt 0 view .LVU786
	popq	%rbp
	.cfi_def_cfa 7, 8
	.loc 1 797 39 view .LVU787
	movl	$0, movecount(%rip)
	.loc 1 798 29 is_stmt 1 view .LVU788
	.loc 1 798 39 is_stmt 0 view .LVU789
	movl	$0, movestate(%rip)
	.loc 1 799 29 is_stmt 1 view .LVU790
	.loc 1 800 29 view .LVU791
	.loc 1 877 1 is_stmt 0 view .LVU792
	ret
	.cfi_endproc
.LFE24:
	.size	compile, .-compile
	.section	.rodata.str1.1
.LC15:
	.string	"r"
.LC16:
	.string	"Error while opening the file."
	.text
	.p2align 4
	.globl	load_file
	.type	load_file, @function
load_file:
.LVL186:
.LFB25:
	.loc 1 880 1 is_stmt 1 view -0
	.cfi_startproc
	.loc 1 880 1 is_stmt 0 view .LVU794
	pushq	%rbp
	.cfi_def_cfa_offset 16
	.cfi_offset 6, -16
	movq	%rsp, %rbp
	.cfi_def_cfa_register 6
	pushq	%r15
	pushq	%r14
	pushq	%r13
	pushq	%r12
	pushq	%rbx
	subq	$24, %rsp
	.cfi_offset 15, -24
	.cfi_offset 14, -32
	.cfi_offset 13, -40
	.cfi_offset 12, -48
	.cfi_offset 3, -56
1:	call	*mcount@GOTPCREL(%rip)
	.loc 1 880 1 view .LVU795
	.loc 1 881 5 is_stmt 1 view .LVU796
	.loc 1 880 1 is_stmt 0 view .LVU797
	movq	%rdi, %rbx
	.loc 1 881 21 view .LVU798
	call	clock@PLT
.LVL187:
	.loc 1 882 5 is_stmt 1 view .LVU799
	.loc 1 884 10 is_stmt 0 view .LVU800
	leaq	.LC15(%rip), %rsi
	movq	%rbx, %rdi
	.loc 1 882 9 view .LVU801
	movl	$0, pos(%rip)
	.loc 1 883 5 is_stmt 1 view .LVU802
	.loc 1 884 5 view .LVU803
	.loc 1 884 10 is_stmt 0 view .LVU804
	call	fopen@PLT
.LVL188:
	movq	%rax, %rbx
.LVL189:
	.loc 1 885 5 is_stmt 1 view .LVU805
	movq	%rax, %rdi
	call	rewind@PLT
.LVL190:
	.loc 1 886 5 view .LVU806
	xorl	%esi, %esi
	movl	$2, %edx
	movq	%rbx, %rdi
	call	fseek@PLT
.LVL191:
	.loc 1 887 5 view .LVU807
	.loc 1 887 16 is_stmt 0 view .LVU808
	movq	%rbx, %rdi
	call	ftell@PLT
.LVL192:
	.loc 1 888 5 view .LVU809
	movq	%rbx, %rdi
	.loc 1 887 9 discriminator 1 view .LVU810
	movq	%rax, -56(%rbp)
.LVL193:
	.loc 1 888 5 is_stmt 1 view .LVU811
	.loc 1 887 9 is_stmt 0 discriminator 1 view .LVU812
	movl	%eax, %r14d
	.loc 1 888 5 view .LVU813
	call	rewind@PLT
.LVL194:
	.loc 1 889 5 is_stmt 1 view .LVU814
	.loc 1 891 5 view .LVU815
	.loc 1 891 8 is_stmt 0 view .LVU816
	testq	%rbx, %rbx
	je	.L179
.LVL195:
	.loc 1 898 13 is_stmt 1 view .LVU817
	movq	-56(%rbp), %rax
	.loc 1 896 9 is_stmt 0 view .LVU818
	xorl	%r15d, %r15d
	leaq	funcs(%rip), %r12
.LBB86:
.LBB87:
	.loc 1 816 5 view .LVU819
	leaq	.L193(%rip), %r13
.LBE87:
.LBE86:
	.loc 1 898 13 view .LVU820
	testl	%eax, %eax
	jle	.L200
.LVL196:
	.p2align 4,,10
	.p2align 3
.L180:
	.loc 1 900 9 is_stmt 1 view .LVU821
	.loc 1 900 14 is_stmt 0 view .LVU822
	movq	%rbx, %rdi
	call	fgetc@PLT
.LVL197:
	.loc 1 901 9 is_stmt 1 view .LVU823
.LBB103:
.LBI86:
	.loc 1 743 6 view .LVU824
.LBB88:
	.loc 1 745 5 view .LVU825
	.loc 1 745 7 is_stmt 0 view .LVU826
	cmpl	$1, intstate(%rip)
	je	.L216
	.loc 1 776 12 is_stmt 1 view .LVU827
	.loc 1 776 21 is_stmt 0 view .LVU828
	movl	$0, intcount(%rip)
.L182:
	.loc 1 778 5 is_stmt 1 view .LVU829
	.loc 1 778 7 is_stmt 0 view .LVU830
	cmpl	$1, movestate(%rip)
	je	.L217
.L186:
	.loc 1 812 11 is_stmt 1 view .LVU831
	.loc 1 812 20 is_stmt 0 view .LVU832
	movl	$0, movecount(%rip)
.L187:
	.loc 1 816 5 is_stmt 1 view .LVU833
	subl	$43, %eax
.LVL198:
	.loc 1 816 5 is_stmt 0 view .LVU834
	cmpb	$50, %al
	ja	.L185
	movzbl	%al, %eax
	movslq	0(%r13,%rax,4), %rax
	addq	%r13, %rax
	jmp	*%rax
	.section	.rodata
	.align 4
	.align 4
.L193:
	.long	.L199-.L193
	.long	.L185-.L193
	.long	.L198-.L193
	.long	.L197-.L193
	.long	.L185-.L193
	.long	.L185-.L193
	.long	.L185-.L193
	.long	.L185-.L193
	.long	.L185-.L193
	.long	.L185-.L193
	.long	.L185-.L193
	.long	.L185-.L193
	.long	.L185-.L193
	.long	.L185-.L193
	.long	.L185-.L193
	.long	.L185-.L193
	.long	.L185-.L193
	.long	.L196-.L193
	.long	.L185-.L193
	.long	.L195-.L193
	.long	.L185-.L193
	.long	.L185-.L193
	.long	.L185-.L193
	.long	.L185-.L193
	.long	.L185-.L193
	.long	.L185-.L193
	.long	.L185-.L193
	.long	.L185-.L193
	.long	.L185-.L193
	.long	.L185-.L193
	.long	.L185-.L193
	.long	.L185-.L193
	.long	.L185-.L193
	.long	.L185-.L193
	.long	.L185-.L193
	.long	.L185-.L193
	.long	.L185-.L193
	.long	.L185-.L193
	.long	.L185-.L193
	.long	.L185-.L193
	.long	.L185-.L193
	.long	.L185-.L193
	.long	.L185-.L193
	.long	.L185-.L193
	.long	.L185-.L193
	.long	.L185-.L193
	.long	.L185-.L193
	.long	.L185-.L193
	.long	.L194-.L193
	.long	.L185-.L193
	.long	.L192-.L193
	.text
	.p2align 4,,10
	.p2align 3
.L199:
	.loc 1 820 10 is_stmt 1 view .LVU835
	.loc 1 821 15 is_stmt 0 view .LVU836
	addl	$1, intcount(%rip)
	.loc 1 820 19 view .LVU837
	movl	$1, intstate(%rip)
	.loc 1 821 7 is_stmt 1 view .LVU838
	.loc 1 822 7 view .LVU839
	.p2align 4,,10
	.p2align 3
.L185:
.LVL199:
	.loc 1 822 7 is_stmt 0 view .LVU840
.LBE88:
.LBE103:
	.loc 1 902 9 is_stmt 1 view .LVU841
	.loc 1 902 10 is_stmt 0 view .LVU842
	addl	$1, %r15d
.LVL200:
	.loc 1 898 13 is_stmt 1 view .LVU843
	cmpl	%r15d, %r14d
	jne	.L180
.LVL201:
.L200:
	.loc 1 904 5 view .LVU844
	.loc 1 904 16 is_stmt 0 view .LVU845
	movslq	pos(%rip), %rax
	.loc 1 905 5 view .LVU846
	movq	%rbx, %rdi
	.loc 1 904 16 view .LVU847
	movq	$8, (%r12,%rax,8)
	.loc 1 905 5 is_stmt 1 view .LVU848
	.loc 1 907 1 is_stmt 0 view .LVU849
	addq	$24, %rsp
	popq	%rbx
.LVL202:
	.loc 1 907 1 view .LVU850
	popq	%r12
	popq	%r13
	popq	%r14
	popq	%r15
	popq	%rbp
	.cfi_remember_state
	.cfi_def_cfa 7, 8
	.loc 1 905 5 view .LVU851
	jmp	fclose@PLT
.LVL203:
	.p2align 4,,10
	.p2align 3
.L194:
	.cfi_restore_state
.LBB104:
.LBB89:
	.loc 1 845 10 is_stmt 1 view .LVU852
	.loc 1 845 15 is_stmt 0 view .LVU853
	movslq	pos(%rip), %rax
	.loc 1 848 28 view .LVU854
	leaq	colon(%rip), %rdx
.LBE89:
.LBE104:
	.loc 1 902 10 view .LVU855
	addl	$1, %r15d
.LVL204:
.LBB105:
.LBB90:
	.loc 1 845 15 view .LVU856
	movq	%rax, %rcx
	.loc 1 845 21 view .LVU857
	movq	$3, (%r12,%rax,8)
	.loc 1 847 10 is_stmt 1 view .LVU858
	.loc 1 847 20 is_stmt 0 view .LVU859
	movl	colonCount(%rip), %eax
	addl	$1, %eax
	movl	%eax, colonCount(%rip)
	.loc 1 848 10 is_stmt 1 view .LVU860
	.loc 1 848 28 is_stmt 0 view .LVU861
	cltq
	movl	%ecx, (%rdx,%rax,4)
	.loc 1 849 10 is_stmt 1 view .LVU862
	.loc 1 849 13 is_stmt 0 view .LVU863
	addl	$2, %ecx
	movl	%ecx, pos(%rip)
	.loc 1 850 4 is_stmt 1 view .LVU864
.LVL205:
	.loc 1 850 4 is_stmt 0 view .LVU865
.LBE90:
.LBE105:
	.loc 1 902 9 is_stmt 1 view .LVU866
	.loc 1 898 13 view .LVU867
	cmpl	%r15d, %r14d
	jne	.L180
	jmp	.L200
.LVL206:
	.p2align 4,,10
	.p2align 3
.L195:
.LBB106:
.LBB91:
	.loc 1 829 10 view .LVU868
.LBE91:
.LBE106:
	.loc 1 902 10 is_stmt 0 view .LVU869
	addl	$1, %r15d
.LVL207:
.LBB107:
.LBB92:
	.loc 1 830 16 view .LVU870
	addl	$1, movecount(%rip)
	.loc 1 829 20 view .LVU871
	movl	$1, movestate(%rip)
	.loc 1 830 7 is_stmt 1 view .LVU872
	.loc 1 831 7 view .LVU873
.LVL208:
	.loc 1 831 7 is_stmt 0 view .LVU874
.LBE92:
.LBE107:
	.loc 1 902 9 is_stmt 1 view .LVU875
	.loc 1 898 13 view .LVU876
	cmpl	%r15d, %r14d
	jne	.L180
	jmp	.L200
.LVL209:
	.p2align 4,,10
	.p2align 3
.L196:
.LBB108:
.LBB93:
	.loc 1 833 10 view .LVU877
.LBE93:
.LBE108:
	.loc 1 902 10 is_stmt 0 view .LVU878
	addl	$1, %r15d
.LVL210:
.LBB109:
.LBB94:
	.loc 1 834 16 view .LVU879
	subl	$1, movecount(%rip)
	.loc 1 833 20 view .LVU880
	movl	$1, movestate(%rip)
	.loc 1 834 7 is_stmt 1 view .LVU881
	.loc 1 835 7 view .LVU882
.LVL211:
	.loc 1 835 7 is_stmt 0 view .LVU883
.LBE94:
.LBE109:
	.loc 1 902 9 is_stmt 1 view .LVU884
	.loc 1 898 13 view .LVU885
	cmpl	%r15d, %r14d
	jne	.L180
	jmp	.L200
.LVL212:
	.p2align 4,,10
	.p2align 3
.L197:
.LBB110:
.LBB95:
	.loc 1 872 10 view .LVU886
	.loc 1 872 15 is_stmt 0 view .LVU887
	movslq	pos(%rip), %rcx
.LBE95:
.LBE110:
	.loc 1 902 10 view .LVU888
	addl	$1, %r15d
.LVL213:
.LBB111:
.LBB96:
	.loc 1 872 15 view .LVU889
	movq	%rcx, %rax
	.loc 1 872 21 view .LVU890
	movq	$5, (%r12,%rcx,8)
	.loc 1 873 10 is_stmt 1 view .LVU891
	.loc 1 873 13 is_stmt 0 view .LVU892
	addl	$1, %eax
	movl	%eax, pos(%rip)
	.loc 1 874 10 is_stmt 1 view .LVU893
.LVL214:
	.loc 1 874 10 is_stmt 0 view .LVU894
.LBE96:
.LBE111:
	.loc 1 902 9 is_stmt 1 view .LVU895
	.loc 1 898 13 view .LVU896
	cmpl	%r15d, %r14d
	jne	.L180
	jmp	.L200
.LVL215:
	.p2align 4,,10
	.p2align 3
.L198:
.LBB112:
.LBB97:
	.loc 1 824 10 view .LVU897
.LBE97:
.LBE112:
	.loc 1 902 10 is_stmt 0 view .LVU898
	addl	$1, %r15d
.LVL216:
.LBB113:
.LBB98:
	.loc 1 825 15 view .LVU899
	subl	$1, intcount(%rip)
	.loc 1 824 19 view .LVU900
	movl	$1, intstate(%rip)
	.loc 1 825 7 is_stmt 1 view .LVU901
	.loc 1 826 7 view .LVU902
.LVL217:
	.loc 1 826 7 is_stmt 0 view .LVU903
.LBE98:
.LBE113:
	.loc 1 902 9 is_stmt 1 view .LVU904
	.loc 1 898 13 view .LVU905
	cmpl	%r15d, %r14d
	jne	.L180
	jmp	.L200
.LVL218:
	.p2align 4,,10
	.p2align 3
.L188:
.LBB114:
.LBB99:
	.loc 1 788 21 view .LVU906
	.loc 1 788 40 is_stmt 0 discriminator 1 view .LVU907
	movl	pos(%rip), %ecx
	.loc 1 788 23 view .LVU908
	cmpb	$93, %al
	jne	.L189
	.loc 1 788 33 discriminator 1 view .LVU909
	cmpl	$1, %ecx
	jle	.L191
	.loc 1 789 25 is_stmt 1 view .LVU910
	.loc 1 789 38 is_stmt 0 view .LVU911
	leal	-2(%rcx), %eax
.LVL219:
	.loc 1 789 33 view .LVU912
	cltq
	.loc 1 789 27 view .LVU913
	cmpq	$3, (%r12,%rax,8)
	je	.L218
.L191:
	.loc 1 804 17 is_stmt 1 view .LVU914
	.loc 1 804 28 is_stmt 0 view .LVU915
	movslq	%ecx, %rax
	movq	$1, (%r12,%rax,8)
	.loc 1 805 17 is_stmt 1 view .LVU916
	.loc 1 806 17 view .LVU917
	.loc 1 805 20 is_stmt 0 view .LVU918
	leal	1(%rcx), %eax
	.loc 1 809 20 view .LVU919
	addl	$2, %ecx
	.loc 1 806 28 view .LVU920
	cltq
	movq	%rsi, (%r12,%rax,8)
	.loc 1 807 17 is_stmt 1 view .LVU921
	.loc 1 807 27 is_stmt 0 view .LVU922
	movl	$0, movecount(%rip)
	.loc 1 808 17 is_stmt 1 view .LVU923
	.loc 1 808 27 is_stmt 0 view .LVU924
	movl	$0, movestate(%rip)
	.loc 1 809 17 is_stmt 1 view .LVU925
	.loc 1 809 20 is_stmt 0 view .LVU926
	movl	%ecx, pos(%rip)
	.loc 1 816 5 is_stmt 1 view .LVU927
.L192:
	.loc 1 861 10 view .LVU928
	.loc 1 861 15 is_stmt 0 view .LVU929
	movslq	pos(%rip), %rax
	.loc 1 864 31 view .LVU930
	leaq	colon(%rip), %rdx
.LBE99:
.LBE114:
	.loc 1 902 10 view .LVU931
	addl	$1, %r15d
.LVL220:
.LBB115:
.LBB100:
	.loc 1 861 21 view .LVU932
	movq	$4, (%r12,%rax,8)
	.loc 1 862 10 is_stmt 1 view .LVU933
	.loc 1 861 15 is_stmt 0 view .LVU934
	movq	%rax, %rcx
	.loc 1 862 13 view .LVU935
	leal	1(%rax), %edi
	.loc 1 864 13 is_stmt 1 view .LVU936
	.loc 1 864 31 is_stmt 0 view .LVU937
	movslq	colonCount(%rip), %rax
	.loc 1 864 24 view .LVU938
	movslq	%edi, %rdi
	.loc 1 868 13 view .LVU939
	addl	$2, %ecx
	.loc 1 864 31 view .LVU940
	movslq	(%rdx,%rax,4), %r8
	movq	%rax, %rsi
	.loc 1 868 13 view .LVU941
	movl	%ecx, pos(%rip)
	.loc 1 867 20 view .LVU942
	subl	$1, %esi
	.loc 1 864 31 view .LVU943
	movq	%r8, %rax
	.loc 1 864 48 view .LVU944
	leaq	8(%r12,%r8,8), %r8
	.loc 1 867 20 view .LVU945
	movl	%esi, colonCount(%rip)
	.loc 1 865 33 view .LVU946
	addl	$1, %eax
	.loc 1 864 48 view .LVU947
	movq	%r8, (%r12,%rdi,8)
	.loc 1 865 10 is_stmt 1 view .LVU948
	.loc 1 865 43 is_stmt 0 view .LVU949
	leaq	(%r12,%rdi,8), %rdi
	.loc 1 865 37 view .LVU950
	cltq
	.loc 1 865 43 view .LVU951
	movq	%rdi, (%r12,%rax,8)
	.loc 1 867 10 is_stmt 1 view .LVU952
	.loc 1 868 10 view .LVU953
	.loc 1 869 10 view .LVU954
.LVL221:
	.loc 1 869 10 is_stmt 0 view .LVU955
.LBE100:
.LBE115:
	.loc 1 902 9 is_stmt 1 view .LVU956
	.loc 1 898 13 view .LVU957
	cmpl	%r15d, %r14d
	jne	.L180
	jmp	.L200
.LVL222:
	.p2align 4,,10
	.p2align 3
.L216:
.LBB116:
.LBB101:
	.loc 1 747 9 view .LVU958
	leal	-46(%rax), %ecx
	cmpb	$47, %cl
	ja	.L182
	movabsq	$175921860526081, %rdx
	btq	%rcx, %rdx
	jnc	.L183
	.loc 1 749 13 view .LVU959
	.loc 1 749 25 is_stmt 0 view .LVU960
	movslq	intcount(%rip), %rcx
	.loc 1 749 15 view .LVU961
	testl	%ecx, %ecx
	je	.L183
	.loc 1 754 21 is_stmt 1 view .LVU962
	.loc 1 754 40 is_stmt 0 discriminator 1 view .LVU963
	movl	pos(%rip), %esi
	.loc 1 754 23 view .LVU964
	cmpb	$93, %al
	je	.L219
.L184:
	.loc 1 767 17 is_stmt 1 view .LVU965
	.loc 1 771 26 is_stmt 0 view .LVU966
	movl	$0, intcount(%rip)
	.loc 1 767 28 view .LVU967
	movslq	%esi, %rdi
	movq	$0, (%r12,%rdi,8)
	.loc 1 768 17 is_stmt 1 view .LVU968
	.loc 1 769 17 view .LVU969
	.loc 1 768 20 is_stmt 0 view .LVU970
	leal	1(%rsi), %edi
	.loc 1 772 26 view .LVU971
	movl	$0, intstate(%rip)
	.loc 1 769 28 view .LVU972
	movslq	%edi, %rdi
	.loc 1 769 37 view .LVU973
	movq	%rcx, (%r12,%rdi,8)
	.loc 1 771 17 is_stmt 1 view .LVU974
	.loc 1 772 17 view .LVU975
	.loc 1 773 17 view .LVU976
	.loc 1 773 20 is_stmt 0 view .LVU977
	leal	2(%rsi), %ecx
	movl	%ecx, pos(%rip)
.L183:
	.loc 1 778 5 is_stmt 1 view .LVU978
	.loc 1 778 7 is_stmt 0 view .LVU979
	cmpl	$1, movestate(%rip)
	jne	.L186
	.loc 1 780 9 is_stmt 1 view .LVU980
	leal	-43(%rax), %ecx
.L201:
	movabsq	$1407374883553293, %rdx
	btq	%rcx, %rdx
	jnc	.L187
	.loc 1 782 13 view .LVU981
	.loc 1 782 26 is_stmt 0 view .LVU982
	movslq	movecount(%rip), %rsi
	.loc 1 782 15 view .LVU983
	testl	%esi, %esi
	jne	.L188
	.loc 1 784 17 is_stmt 1 view .LVU984
	.loc 1 784 27 is_stmt 0 view .LVU985
	movl	$0, movestate(%rip)
	jmp	.L187
	.p2align 4,,10
	.p2align 3
.L217:
	.loc 1 780 9 is_stmt 1 view .LVU986
	leal	-43(%rax), %ecx
	cmpb	$50, %cl
	jbe	.L201
.LVL223:
	.loc 1 780 9 is_stmt 0 view .LVU987
.LBE101:
.LBE116:
	.loc 1 902 9 is_stmt 1 view .LVU988
	.loc 1 902 10 is_stmt 0 view .LVU989
	addl	$1, %r15d
.LVL224:
	.loc 1 898 13 is_stmt 1 view .LVU990
	cmpl	%r15d, %r14d
	jne	.L180
	jmp	.L200
.LVL225:
	.p2align 4,,10
	.p2align 3
.L189:
.LBB117:
.LBB102:
	.loc 1 804 17 view .LVU991
	.loc 1 807 27 is_stmt 0 view .LVU992
	movl	$0, movecount(%rip)
	.loc 1 804 28 view .LVU993
	movslq	%ecx, %rdi
	movq	$1, (%r12,%rdi,8)
	.loc 1 805 17 is_stmt 1 view .LVU994
	.loc 1 806 17 view .LVU995
	.loc 1 805 20 is_stmt 0 view .LVU996
	leal	1(%rcx), %edi
	.loc 1 809 20 view .LVU997
	addl	$2, %ecx
	.loc 1 806 28 view .LVU998
	movslq	%edi, %rdi
	.loc 1 809 20 view .LVU999
	movl	%ecx, pos(%rip)
	.loc 1 806 28 view .LVU1000
	movq	%rsi, (%r12,%rdi,8)
	.loc 1 807 17 is_stmt 1 view .LVU1001
	.loc 1 808 17 view .LVU1002
	.loc 1 808 27 is_stmt 0 view .LVU1003
	movl	$0, movestate(%rip)
	.loc 1 809 17 is_stmt 1 view .LVU1004
	jmp	.L187
	.p2align 4,,10
	.p2align 3
.L219:
	.loc 1 754 33 is_stmt 0 discriminator 1 view .LVU1005
	cmpl	$1, %esi
	jle	.L184
	.loc 1 755 25 is_stmt 1 view .LVU1006
	.loc 1 755 38 is_stmt 0 view .LVU1007
	leal	-2(%rsi), %edi
	.loc 1 755 33 view .LVU1008
	movslq	%edi, %rdi
	.loc 1 755 27 view .LVU1009
	cmpq	$3, (%r12,%rdi,8)
	jne	.L184
	.loc 1 757 29 is_stmt 1 view .LVU1010
	.loc 1 758 29 view .LVU1011
	.loc 1 759 32 is_stmt 0 view .LVU1012
	leal	-1(%rsi), %ecx
	.loc 1 762 39 view .LVU1013
	subl	$1, colonCount(%rip)
	.loc 1 758 40 view .LVU1014
	movq	$6, (%r12,%rdi,8)
	.loc 1 759 29 is_stmt 1 view .LVU1015
	.loc 1 759 32 is_stmt 0 view .LVU1016
	movl	%ecx, pos(%rip)
	.loc 1 760 29 is_stmt 1 view .LVU1017
	.loc 1 760 38 is_stmt 0 view .LVU1018
	movl	$0, intcount(%rip)
	.loc 1 761 29 is_stmt 1 view .LVU1019
	.loc 1 761 38 is_stmt 0 view .LVU1020
	movl	$0, intstate(%rip)
	.loc 1 762 29 is_stmt 1 view .LVU1021
	.loc 1 763 29 view .LVU1022
	jmp	.L185
.LVL226:
.L218:
	.loc 1 792 29 view .LVU1023
	.loc 1 793 29 view .LVU1024
	.loc 1 794 38 is_stmt 0 view .LVU1025
	subl	$1, %ecx
	.loc 1 793 40 view .LVU1026
	movq	$7, (%r12,%rax,8)
	.loc 1 794 29 is_stmt 1 view .LVU1027
	.loc 1 794 42 is_stmt 0 view .LVU1028
	movslq	%ecx, %rax
	.loc 1 799 39 view .LVU1029
	subl	$1, colonCount(%rip)
	.loc 1 794 42 view .LVU1030
	movq	%rsi, (%r12,%rax,8)
	.loc 1 795 29 is_stmt 1 view .LVU1031
	.loc 1 797 29 view .LVU1032
	.loc 1 797 39 is_stmt 0 view .LVU1033
	movl	$0, movecount(%rip)
	.loc 1 798 29 is_stmt 1 view .LVU1034
	.loc 1 798 39 is_stmt 0 view .LVU1035
	movl	$0, movestate(%rip)
	.loc 1 799 29 is_stmt 1 view .LVU1036
	.loc 1 800 29 view .LVU1037
	jmp	.L185
.LVL227:
.L179:
	.loc 1 800 29 is_stmt 0 view .LVU1038
.LBE102:
.LBE117:
.LBB118:
.LBI118:
	.loc 1 879 6 is_stmt 1 view .LVU1039
.LBB119:
	.loc 1 893 9 view .LVU1040
	leaq	.LC16(%rip), %rdi
	call	puts@PLT
.LVL228:
	.loc 1 894 9 view .LVU1041
	movl	$1, %edi
	call	exit@PLT
.LVL229:
.LBE119:
.LBE118:
	.cfi_endproc
.LFE25:
	.size	load_file, .-load_file
	.section	.rodata.str1.1
.LC17:
	.string	"error: no file specified"
.LC18:
	.string	"helloworld.txt"
	.section	.text.startup,"ax",@progbits
	.p2align 4
	.globl	main
	.type	main, @function
main:
.LVL230:
.LFB22:
	.loc 1 24 1 view -0
	.cfi_startproc
	.loc 1 24 1 is_stmt 0 view .LVU1043
	pushq	%rbp
	.cfi_def_cfa_offset 16
	.cfi_offset 6, -16
	movq	%rsp, %rbp
	.cfi_def_cfa_register 6
	pushq	%r12
	pushq	%rbx
	.cfi_offset 12, -24
	.cfi_offset 3, -32
1:	call	*mcount@GOTPCREL(%rip)
	.loc 1 24 1 view .LVU1044
	.loc 1 26 5 is_stmt 1 view .LVU1045
.LVL231:
	.loc 1 28 5 view .LVU1046
.LBB120:
	.loc 1 28 10 view .LVU1047
	.loc 1 28 25 discriminator 1 view .LVU1048
	cmpl	$1, %edi
	jle	.L221
	leal	-2(%rdi), %eax
	leaq	8(%rsi), %rbx
	leaq	16(%rsi,%rax,8), %r12
.LBE120:
	.loc 1 26 9 is_stmt 0 view .LVU1049
	xorl	%eax, %eax
.LVL232:
	.p2align 4,,10
	.p2align 3
.L223:
.LBB121:
	.loc 1 30 9 is_stmt 1 view .LVU1050
	.loc 1 30 16 is_stmt 0 view .LVU1051
	movq	(%rbx), %rdi
	.loc 1 30 11 view .LVU1052
	cmpb	$45, (%rdi)
	je	.L222
	.loc 1 32 13 is_stmt 1 view .LVU1053
	call	load_file
.LVL233:
	.loc 1 33 13 view .LVU1054
	.loc 1 33 21 is_stmt 0 view .LVU1055
	movl	$1, %eax
.LVL234:
.L222:
	.loc 1 28 33 is_stmt 1 discriminator 2 view .LVU1056
	.loc 1 28 25 discriminator 1 view .LVU1057
	addq	$8, %rbx
.LVL235:
	.loc 1 28 25 is_stmt 0 discriminator 1 view .LVU1058
	cmpq	%r12, %rbx
	jne	.L223
.LBE121:
	.loc 1 36 5 is_stmt 1 view .LVU1059
	.loc 1 36 7 is_stmt 0 view .LVU1060
	testl	%eax, %eax
	je	.L221
.LVL236:
.L225:
	.loc 1 42 5 is_stmt 1 view .LVU1061
	xorl	%eax, %eax
	call	runJIT
.LVL237:
	.loc 1 43 5 view .LVU1062
	.loc 1 44 1 is_stmt 0 view .LVU1063
	popq	%rbx
	xorl	%eax, %eax
	popq	%r12
	popq	%rbp
	.cfi_remember_state
	.cfi_def_cfa 7, 8
	ret
.L221:
	.cfi_restore_state
	.loc 1 36 5 is_stmt 1 view .LVU1064
	.loc 1 37 9 view .LVU1065
	leaq	.LC17(%rip), %rdi
	call	puts@PLT
.LVL238:
	.loc 1 38 9 view .LVU1066
	leaq	.LC18(%rip), %rdi
	call	load_file
.LVL239:
	jmp	.L225
	.cfi_endproc
.LFE22:
	.size	main, .-main
	.globl	colonCount
	.bss
	.align 4
	.type	colonCount, @object
	.size	colonCount, 4
colonCount:
	.zero	4
	.globl	movestate
	.align 4
	.type	movestate, @object
	.size	movestate, 4
movestate:
	.zero	4
	.globl	movecount
	.align 4
	.type	movecount, @object
	.size	movecount, 4
movecount:
	.zero	4
	.globl	intstate
	.align 4
	.type	intstate, @object
	.size	intstate, 4
intstate:
	.zero	4
	.globl	intcount
	.align 4
	.type	intcount, @object
	.size	intcount, 4
intcount:
	.zero	4
	.globl	funcs
	.align 32
	.type	funcs, @object
	.size	funcs, 80000
funcs:
	.zero	80000
	.globl	pos
	.align 4
	.type	pos, @object
	.size	pos, 4
pos:
	.zero	4
	.globl	lastcolon
	.align 2
	.type	lastcolon, @object
	.size	lastcolon, 2
lastcolon:
	.zero	2
	.globl	colon
	.align 32
	.type	colon, @object
	.size	colon, 262140
colon:
	.zero	262140
	.section	.rodata.cst4,"aM",@progbits,4
	.align 4
.LC2:
	.long	1232348160
	.text
.Letext0:
	.file 2 "/usr/lib/gcc/x86_64-pc-linux-gnu/13.2.1/include/stddef.h"
	.file 3 "/usr/include/bits/types.h"
	.file 4 "/usr/include/bits/types/struct_FILE.h"
	.file 5 "/usr/include/bits/types/FILE.h"
	.file 6 "/usr/include/bits/types/clock_t.h"
	.file 7 "/usr/include/stdint.h"
	.file 8 "/usr/include/stdio.h"
	.file 9 "/usr/include/stdlib.h"
	.file 10 "<built-in>"
	.file 11 "/usr/include/time.h"
	.section	.note.GNU-stack,"",@progbits
